
Dc_suction_pump.elf:     file format elf32-avr

Sections:
Idx Name          Size      VMA       LMA       File off  Algn
  0 .data         0000024e  00804000  00005d8c  00005e20  2**0
                  CONTENTS, ALLOC, LOAD, DATA
  1 .text         00005d8c  00000000  00000000  00000094  2**1
                  CONTENTS, ALLOC, LOAD, READONLY, CODE
  2 .bss          000000b1  0080424e  0080424e  0000606e  2**0
                  ALLOC
  3 .comment      00000030  00000000  00000000  0000606e  2**0
                  CONTENTS, READONLY
  4 .note.gnu.avr.deviceinfo 00000040  00000000  00000000  000060a0  2**2
                  CONTENTS, READONLY
  5 .debug_aranges 00000480  00000000  00000000  000060e0  2**3
                  CONTENTS, READONLY, DEBUGGING
  6 .debug_info   00009fcc  00000000  00000000  00006560  2**0
                  CONTENTS, READONLY, DEBUGGING
  7 .debug_abbrev 00002f58  00000000  00000000  0001052c  2**0
                  CONTENTS, READONLY, DEBUGGING
  8 .debug_line   0000353a  00000000  00000000  00013484  2**0
                  CONTENTS, READONLY, DEBUGGING
  9 .debug_frame  00000f64  00000000  00000000  000169c0  2**2
                  CONTENTS, READONLY, DEBUGGING
 10 .debug_str    00003c4c  00000000  00000000  00017924  2**0
                  CONTENTS, READONLY, DEBUGGING
 11 .debug_loc    0000440e  00000000  00000000  0001b570  2**0
                  CONTENTS, READONLY, DEBUGGING
 12 .debug_ranges 00000438  00000000  00000000  0001f97e  2**0
                  CONTENTS, READONLY, DEBUGGING

Disassembly of section .text:

00000000 <__vectors>:
       0:	0c 94 31 0f 	jmp	0x1e62	; 0x1e62 <__ctors_end>
       4:	0c 94 50 0f 	jmp	0x1ea0	; 0x1ea0 <__bad_interrupt>
       8:	0c 94 50 0f 	jmp	0x1ea0	; 0x1ea0 <__bad_interrupt>
       c:	0c 94 50 0f 	jmp	0x1ea0	; 0x1ea0 <__bad_interrupt>
      10:	0c 94 50 0f 	jmp	0x1ea0	; 0x1ea0 <__bad_interrupt>
      14:	0c 94 50 0f 	jmp	0x1ea0	; 0x1ea0 <__bad_interrupt>
      18:	0c 94 50 0f 	jmp	0x1ea0	; 0x1ea0 <__bad_interrupt>
      1c:	0c 94 50 0f 	jmp	0x1ea0	; 0x1ea0 <__bad_interrupt>
      20:	0c 94 50 0f 	jmp	0x1ea0	; 0x1ea0 <__bad_interrupt>
      24:	0c 94 50 0f 	jmp	0x1ea0	; 0x1ea0 <__bad_interrupt>
      28:	0c 94 50 0f 	jmp	0x1ea0	; 0x1ea0 <__bad_interrupt>
      2c:	0c 94 50 0f 	jmp	0x1ea0	; 0x1ea0 <__bad_interrupt>
      30:	0c 94 50 0f 	jmp	0x1ea0	; 0x1ea0 <__bad_interrupt>
      34:	0c 94 56 1a 	jmp	0x34ac	; 0x34ac <__vector_13>
      38:	0c 94 50 0f 	jmp	0x1ea0	; 0x1ea0 <__bad_interrupt>
      3c:	0c 94 50 0f 	jmp	0x1ea0	; 0x1ea0 <__bad_interrupt>
      40:	0c 94 50 0f 	jmp	0x1ea0	; 0x1ea0 <__bad_interrupt>
      44:	0c 94 50 0f 	jmp	0x1ea0	; 0x1ea0 <__bad_interrupt>
      48:	0c 94 50 0f 	jmp	0x1ea0	; 0x1ea0 <__bad_interrupt>
      4c:	0c 94 50 0f 	jmp	0x1ea0	; 0x1ea0 <__bad_interrupt>
      50:	0c 94 50 0f 	jmp	0x1ea0	; 0x1ea0 <__bad_interrupt>
      54:	0c 94 50 0f 	jmp	0x1ea0	; 0x1ea0 <__bad_interrupt>
      58:	0c 94 50 0f 	jmp	0x1ea0	; 0x1ea0 <__bad_interrupt>
      5c:	0c 94 50 0f 	jmp	0x1ea0	; 0x1ea0 <__bad_interrupt>
      60:	0c 94 50 0f 	jmp	0x1ea0	; 0x1ea0 <__bad_interrupt>
      64:	0c 94 50 0f 	jmp	0x1ea0	; 0x1ea0 <__bad_interrupt>
      68:	0c 94 50 0f 	jmp	0x1ea0	; 0x1ea0 <__bad_interrupt>
      6c:	0c 94 50 0f 	jmp	0x1ea0	; 0x1ea0 <__bad_interrupt>
      70:	0c 94 50 0f 	jmp	0x1ea0	; 0x1ea0 <__bad_interrupt>
      74:	0c 94 de 26 	jmp	0x4dbc	; 0x4dbc <__vector_29>
      78:	0c 94 8c 1a 	jmp	0x3518	; 0x3518 <__vector_30>
      7c:	0c 94 50 0f 	jmp	0x1ea0	; 0x1ea0 <__bad_interrupt>
      80:	0c 94 50 0f 	jmp	0x1ea0	; 0x1ea0 <__bad_interrupt>
      84:	0c 94 50 0f 	jmp	0x1ea0	; 0x1ea0 <__bad_interrupt>
      88:	0c 94 53 26 	jmp	0x4ca6	; 0x4ca6 <__vector_34>
      8c:	0c 94 50 0f 	jmp	0x1ea0	; 0x1ea0 <__bad_interrupt>
      90:	0c 94 50 0f 	jmp	0x1ea0	; 0x1ea0 <__bad_interrupt>
      94:	0c 94 50 0f 	jmp	0x1ea0	; 0x1ea0 <__bad_interrupt>
      98:	0c 94 50 0f 	jmp	0x1ea0	; 0x1ea0 <__bad_interrupt>
      9c:	0c 94 50 0f 	jmp	0x1ea0	; 0x1ea0 <__bad_interrupt>
      a0:	0c 94 50 0f 	jmp	0x1ea0	; 0x1ea0 <__bad_interrupt>
      a4:	0c 94 50 0f 	jmp	0x1ea0	; 0x1ea0 <__bad_interrupt>
      a8:	0c 94 50 0f 	jmp	0x1ea0	; 0x1ea0 <__bad_interrupt>
      ac:	0c 94 50 0f 	jmp	0x1ea0	; 0x1ea0 <__bad_interrupt>
      b0:	0c 94 50 0f 	jmp	0x1ea0	; 0x1ea0 <__bad_interrupt>
      b4:	0c 94 62 27 	jmp	0x4ec4	; 0x4ec4 <__vector_45>
      b8:	0c 94 50 0f 	jmp	0x1ea0	; 0x1ea0 <__bad_interrupt>
      bc:	0c 94 50 0f 	jmp	0x1ea0	; 0x1ea0 <__bad_interrupt>
      c0:	0c 94 50 0f 	jmp	0x1ea0	; 0x1ea0 <__bad_interrupt>
      c4:	0c 94 50 0f 	jmp	0x1ea0	; 0x1ea0 <__bad_interrupt>
      c8:	0c 94 50 0f 	jmp	0x1ea0	; 0x1ea0 <__bad_interrupt>
      cc:	0c 94 50 0f 	jmp	0x1ea0	; 0x1ea0 <__bad_interrupt>
      d0:	0c 94 50 0f 	jmp	0x1ea0	; 0x1ea0 <__bad_interrupt>
      d4:	0c 94 50 0f 	jmp	0x1ea0	; 0x1ea0 <__bad_interrupt>
      d8:	0c 94 50 0f 	jmp	0x1ea0	; 0x1ea0 <__bad_interrupt>
      dc:	0c 94 50 0f 	jmp	0x1ea0	; 0x1ea0 <__bad_interrupt>
      e0:	0c 94 50 0f 	jmp	0x1ea0	; 0x1ea0 <__bad_interrupt>
      e4:	0c 94 50 0f 	jmp	0x1ea0	; 0x1ea0 <__bad_interrupt>

000000e8 <Pattern_font_30x64>:
	...
     100:	fe 3f 3f df ef f7 f3 06 ff 7f bf df ef f7 fb 86     .??.............
     110:	c3 61 86 03 0c 06 1b c6 c3 61 86 03 0c 06 1b c6     .a.......a......
     120:	c3 61 86 03 0c 06 1b e6 c3 61 86 03 0c 06 1b 66     .a.......a.....f
     130:	ff 7f 86 03 0f c7 fb 76 fe 7f 86 03 0f c7 f3 36     .......v.......6
     140:	c0 61 86 03 0c 07 83 3e c0 61 86 03 0c 06 c3 1e     .a.....>.a......
     150:	c0 61 86 03 0c 06 63 1e c0 61 86 03 0c 06 33 0e     .a....c..a....3.
     160:	c0 61 86 03 0f f6 1b 0e c0 61 86 03 0f f6 0b 06     .a.......a......
	...

000001d8 <Special_font_30x64>:
	...
     1f0:	3f 1f 8f e7 e7 f9 f9 80 7f bf df ef f7 fb fd 80     ?...............
     200:	61 b0 d8 0c 30 c3 0d 80 60 30 d8 0c 00 c3 0d 80     a...0...`0......
     210:	60 30 d8 0c 00 c3 0d 80 60 30 d8 0c 00 c3 0d 80     `0......`0......
     220:	7f 3f df 8c 00 c3 fd 80 3f bf 9f 8c 00 c3 fd 80     .?......?.......
     230:	01 b0 18 0c 00 c3 0d 80 01 b0 18 0c 00 c3 0d 80     ................
     240:	01 b0 18 0c 00 c3 0d 80 61 b0 18 0c 30 c3 0d 80     ........a...0...
     250:	7f b0 1f ef f7 fb 0d fe 3f 30 0f e7 e7 fb 0d fe     ........?0......
	...

000002c8 <In_font_30x24>:
	...
     2d0:	00 3f d8 30 3f dc 30 06 1e 30 06 1e 30 06 1f 30     .?.0?.0..0..0..0
     2e0:	06 1b 30 06 1b b0 06 19 b0 06 19 f0 06 18 f0 06     ..0.............
     2f0:	18 f0 06 18 70 3f d8 70 3f d8 30 00 00 00 00 00     ....p?.p?.0.....
	...

00000322 <Button_font_30x64>:
	...
     33a:	3f 98 37 fb fc fc c1 80 3f d8 37 fb fd fe e1 80     ?.7.....?.7.....
     34a:	30 d8 30 c0 61 86 f1 80 30 d8 30 c0 61 86 f1 80     0.0.a...0.0.a...
     35a:	30 d8 30 c0 61 86 f9 80 30 d8 30 c0 61 86 d9 80     0.0.a...0.0.a...
     36a:	3f 98 30 c0 61 86 dd 80 3f 98 30 c0 61 86 cd 80     ?.0.a...?.0.a...
     37a:	30 d8 30 c0 61 86 cf 80 30 d8 30 c0 61 86 c7 80     0.0.a...0.0.a...
     38a:	30 d8 30 c0 61 86 c7 80 30 d8 30 c0 61 86 c3 80     0.0.a...0.0.a...
     39a:	3f df f0 c0 61 fe c3 80 3f 8f e0 c0 60 fc c1 80     ?...a...?...`...
	...

00000412 <Press_font_20x48>:
	...
     422:	00 00 7f 3f 9f e7 e3 f0 7f bf df ef f7 f8 61 b0     ...?..........a.
     432:	d8 0c 36 18 61 b0 d8 0c 06 00 61 b0 d8 0c 06 00     ..6.a.....a.....
     442:	61 b0 d8 0c 06 00 7f bf df 8f e7 f0 7f 3f 9f 87     a............?..
     452:	f7 f8 60 3c 18 00 30 18 60 36 18 00 30 18 60 33     ..`<..0.`6..0.`3
     462:	18 00 30 18 60 31 98 0c 36 18 60 30 df ef f7 f8     ..0.`1..6.`0....
     472:	60 30 5f ef e3 f0 00 00 00 00 00 00 00 00 00 00     `0_.............
	...

0000048a <jersey_numerical_font_24x24_po>:
     48a:	3f fc 00 7f fe 00 ff ff 00 ff ff 00 f0 0f 00 f0     ?...............
     49a:	0f 00 f0 0f 00 f0 0f 00 f0 0f 00 f0 0f 00 f0 0f     ................
     4aa:	00 f0 0f 00 f0 0f 00 f0 0f 00 f0 0f 00 f0 0f 00     ................
     4ba:	f0 0f 00 f0 0f 00 f0 0f 00 f0 0f 00 ff ff 00 ff     ................
     4ca:	ff 00 7f fe 00 3f fc 00 03 f0 00 07 f0 00 0f f0     .....?..........
     4da:	00 0f f0 00 0f f0 00 0f f0 00 0f f0 00 01 f0 00     ................
     4ea:	01 f0 00 01 f0 00 01 f0 00 01 f0 00 01 f0 00 01     ................
     4fa:	f0 00 01 f0 00 01 f0 00 01 f0 00 01 f0 00 01 f0     ................
     50a:	00 01 f0 00 0f fe 00 0f fe 00 0f fe 00 0f fe 00     ................
     51a:	3f fc 00 7f fe 00 ff ff 00 ff ff 00 f0 0f 00 f0     ?...............
     52a:	0f 00 00 0f 00 00 0f 00 00 0f 00 00 0f 00 3f ff     ..............?.
     53a:	00 7f ff 00 ff fe 00 ff fc 00 f0 00 00 f0 00 00     ................
     54a:	f0 00 00 f0 00 00 f0 00 00 f0 00 00 ff ff 00 ff     ................
     55a:	ff 00 7f ff 00 3f ff 00 3f fc 00 7f fe 00 ff ff     .....?..?.......
     56a:	00 ff ff 00 f0 0f 00 f0 0f 00 00 0f 00 00 0f 00     ................
     57a:	00 0f 00 00 0f 00 1f ff 00 1f ff 00 1f ff 00 1f     ................
     58a:	ff 00 00 0f 00 00 0f 00 00 0f 00 00 0f 00 f0 0f     ................
     59a:	00 f0 0f 00 ff ff 00 ff ff 00 7f fe 00 3f fc 00     .............?..
     5aa:	00 7c 00 00 fc 00 00 fc 00 01 fc 00 03 fc 00 03     .|..............
     5ba:	fc 00 07 fc 00 0f fc 00 0f bc 00 1f 3c 00 3f 3c     ............<.?<
     5ca:	00 3e 3c 00 7c 3c 00 fc 3c 00 f8 3c 00 ff ff 00     .><.|<..<..<....
     5da:	ff ff 00 ff ff 00 ff ff 00 00 3c 00 00 3c 00 00     ..........<..<..
     5ea:	3c 00 00 3c 00 00 3c 00 ff ff 00 ff ff 00 ff ff     <..<..<.........
     5fa:	00 ff ff 00 f0 00 00 f0 00 00 f0 00 00 f0 00 00     ................
     60a:	ff fc 00 ff fe 00 7f ff 00 3f ff 00 00 0f 00 00     .........?......
     61a:	0f 00 00 0f 00 00 0f 00 00 0f 00 f0 0f 00 f0 0f     ................
     62a:	00 f0 0f 00 ff ff 00 ff ff 00 7f fe 00 3f fc 00     .............?..
     63a:	3f fc 00 7f fe 00 ff ff 00 ff ff 00 f0 0f 00 f0     ?...............
     64a:	0f 00 f0 00 00 f0 00 00 f0 00 00 f0 00 00 ff fc     ................
     65a:	00 ff fe 00 ff ff 00 ff ff 00 f0 0f 00 f0 0f 00     ................
     66a:	f0 0f 00 f0 0f 00 f0 0f 00 f0 0f 00 ff ff 00 ff     ................
     67a:	ff 00 7f fe 00 3f fc 00 ff ff 00 ff ff 00 ff ff     .....?..........
     68a:	00 ff ff 00 f0 1f 00 f0 1f 00 f0 3f 00 00 3e 00     ...........?..>.
     69a:	00 3e 00 00 7c 00 00 7c 00 00 fc 00 00 f8 00 00     .>..|..|........
     6aa:	f8 00 01 f0 00 01 f0 00 03 f0 00 03 e0 00 03 e0     ................
     6ba:	00 07 c0 00 07 c0 00 0f c0 00 0f 80 00 0f 80 00     ................
     6ca:	3f fc 00 7f fe 00 ff ff 00 ff ff 00 f0 0f 00 f0     ?...............
     6da:	0f 00 f0 0f 00 f0 0f 00 f0 0f 00 f0 0f 00 7f fe     ................
     6ea:	00 3f fc 00 3f fc 00 7f fe 00 f0 0f 00 f0 0f 00     .?..?...........
     6fa:	f0 0f 00 f0 0f 00 f0 0f 00 f0 0f 00 ff ff 00 ff     ................
     70a:	ff 00 7f fe 00 3f fc 00 3f fc 00 7f fe 00 ff ff     .....?..?.......
     71a:	00 ff ff 00 f0 0f 00 f0 0f 00 f0 0f 00 f0 0f 00     ................
     72a:	f0 0f 00 f0 0f 00 ff ff 00 ff ff 00 7f ff 00 3f     ...............?
     73a:	ff 00 00 0f 00 00 0f 00 00 0f 00 f0 0f 00 f0 0f     ................
     74a:	00 f0 0f 00 ff ff 00 ff ff 00 7f fe 00 3f fc 00     .............?..

0000075a <Run_font_30x32>:
	...
     766:	1f 98 6c 18 3f d8 6e 18 30 d8 6f 18 30 d8 6f 18     ..l.?.n.0.o.0.o.
     776:	30 d8 6f 98 30 d8 6d 98 3f d8 6d d8 3f 98 6c d8     0.o.0.m.?.m.?.l.
     786:	3c 18 6c d8 36 18 6c 78 33 18 6c 78 31 98 6c 38     <.l.6.lx3.lx1.l8
     796:	30 df ec 38 30 4f cc 38 00 00 00 00 00 00 00 00     0..80O.8........
	...

000007d2 <Total_font_30x48>:
	...
     7e2:	00 00 7f 9f 9f e7 e6 00 7f bf df ef f6 00 0c 30     ...............0
     7f2:	c3 0c 36 00 0c 30 c3 0c 36 00 0c 30 c3 0c 36 00     ..6..0..6..0..6.
     802:	0c 30 c3 0c 36 00 0c 30 c3 0f f6 00 0c 30 c3 0f     .0..6..0.....0..
     812:	f6 00 0c 30 c3 0c 36 00 0c 30 c3 0c 36 00 0c 30     ...0..6..0..6..0
     822:	c3 0c 36 00 0c 30 c3 0c 36 00 0c 3f c3 0c 37 f8     ..6..0..6..?..7.
     832:	0c 1f 83 0c 37 f8 00 00 00 00 00 00 00 00 00 00     ....7...........
	...

00000886 <Hours_font_30x48>:
	...
     896:	00 00 30 cf cc 33 f1 f8 30 df ec 37 fb fc 30 d8     ..0..3..0..7..0.
     8a6:	6c 36 1b 0c 30 d8 6c 36 1b 00 30 d8 6c 36 1b 00     l6..0.l6..0.l6..
     8b6:	30 d8 6c 36 1b 00 3f d8 6c 37 fb f8 3f d8 6c 37     0.l6..?.l7..?.l7
     8c6:	f1 fc 30 d8 6c 37 80 0c 30 d8 6c 36 c0 0c 30 d8     ..0.l7..0.l6..0.
     8d6:	6c 36 60 0c 30 d8 6c 36 33 0c 30 df ef f6 1b fc     l6`.0.l63.0.....
     8e6:	30 cf c7 e6 09 f8 00 00 00 00 00 00 00 00 00 00     0...............
	...

0000093a <Service_font_30x64>:
	...
     952:	3f 1f cf cc 37 f9 f9 fe 7f bf df ec 37 fb fd fe     ?...7.......7...
     962:	61 b0 18 6c 30 c3 0d 80 60 30 18 6c 30 c3 01 80     a..l0...`0.l0...
     972:	60 30 18 6c 30 c3 01 80 60 30 18 6c 30 c3 01 80     `0.l0...`0.l0...
     982:	7f 3f 1f ec 30 c3 01 f8 3f bf 1f ce 70 c3 01 f8     .?..0...?...p...
     992:	01 b0 1e 0e 70 c3 01 80 01 b0 1b 07 e0 c3 01 80     ....p...........
     9a2:	01 b0 19 87 e0 c3 01 80 61 b0 18 c3 c0 c3 0d 80     ........a.......
     9b2:	7f bf d8 63 c7 fb fd fe 3f 1f d8 21 87 f9 f9 fe     ...c....?..!....
	...

00000a2a <s_alphabet_17X17>:
     a2a:	00 00 00 0f f8 00 1f fc 00 18 0c 00 18 0c 00 18     ................
     a3a:	00 00 18 00 00 1f f0 00 0f f8 00 00 1c 00 00 0c     ................
     a4a:	00 18 0c 00 18 0c 00 1c 1c 00 1f fc 00 0f f8 00     ................
     a5a:	00 00 00                                            ...

00000a5d <arial_numerical_font_49x40>:
     a5d:	07 ff ff 80 00 1f ff ff e0 00 3f ff ff f0 00 7f     ..........?.....
     a6d:	ff ff f8 00 7f ff ff f8 00 ff ff ff fc 00 ff ff     ................
     a7d:	ff fc 00 ff ff ff fc 00 ff e0 1f fc 00 ff c0 0f     ................
     a8d:	fc 00 ff 80 07 fc 00 ff 80 07 fc 00 ff 80 07 fc     ................
     a9d:	00 ff 80 07 fc 00 ff 80 07 fc 00 ff 80 07 fc 00     ................
     aad:	ff 80 07 fc 00 ff 80 07 fc 00 ff 80 07 fc 00 ff     ................
     abd:	80 07 fc 00 ff 80 07 fc 00 ff 80 07 fc 00 ff 80     ................
     acd:	07 fc 00 ff 80 07 fc 00 ff 80 07 fc 00 ff 80 07     ................
     add:	fc 00 ff 80 07 fc 00 ff 80 07 fc 00 ff 80 07 fc     ................
     aed:	00 ff 80 07 fc 00 ff 80 07 fc 00 ff 80 07 fc 00     ................
     afd:	ff 80 07 fc 00 ff 80 07 fc 00 ff 80 07 fc 00 ff     ................
     b0d:	80 07 fc 00 ff 80 07 fc 00 ff 80 07 fc 00 ff 80     ................
     b1d:	07 fc 00 ff c0 0f fc 00 ff e0 1f fc 00 ff ff ff     ................
     b2d:	fc 00 ff ff ff fc 00 ff ff ff fc 00 7f ff ff f8     ................
     b3d:	00 7f ff ff f8 00 3f ff ff f0 00 1f ff ff e0 00     ......?.........
     b4d:	07 ff ff 80 00 00 03 fe 00 00 00 07 fe 00 00 00     ................
     b5d:	0f fe 00 00 00 0f fe 00 00 00 1f fe 00 00 00 3f     ...............?
     b6d:	fe 00 00 00 7f fe 00 00 00 ff fe 00 00 01 ff fe     ................
     b7d:	00 00 03 ff fe 00 00 07 ff fe 00 00 07 ff fe 00     ................
     b8d:	00 07 ff fe 00 00 07 ff fe 00 00 07 fb fe 00 00     ................
     b9d:	07 f3 fe 00 00 07 e3 fe 00 00 07 c3 fe 00 00 07     ................
     bad:	83 fe 00 00 07 03 fe 00 00 00 03 fe 00 00 00 03     ................
     bbd:	fe 00 00 00 03 fe 00 00 00 03 fe 00 00 00 03 fe     ................
     bcd:	00 00 00 03 fe 00 00 00 03 fe 00 00 00 03 fe 00     ................
     bdd:	00 00 03 fe 00 00 00 03 fe 00 00 00 03 fe 00 00     ................
     bed:	00 03 fe 00 00 00 03 fe 00 00 00 03 fe 00 00 00     ................
     bfd:	03 fe 00 00 00 03 fe 00 00 00 03 fe 00 00 00 03     ................
     c0d:	fe 00 00 00 03 fe 00 00 00 03 fe 00 00 00 03 fe     ................
     c1d:	00 00 0f ff ff ff 00 0f ff ff ff 00 0f ff ff ff     ................
     c2d:	00 0f ff ff ff 00 0f ff ff ff 00 0f ff ff ff 00     ................
     c3d:	0f ff ff ff 00 0f ff ff ff 00 00 0f ff 80 00 00     ................
     c4d:	3f ff e0 00 00 7f ff f8 00 00 ff ff fc 00 01 ff     ?...............
     c5d:	ff fe 00 03 ff ff ff 00 07 ff ff ff 80 07 ff ff     ................
     c6d:	ff c0 0f fc 03 ff c0 0f f8 01 ff e0 1f f0 00 ff     ................
     c7d:	e0 1f f0 00 7f e0 1f f0 00 7f e0 1f f0 00 7f e0     ................
     c8d:	1f f0 00 7f e0 1f f0 00 7f e0 00 00 00 ff e0 00     ................
     c9d:	00 01 ff c0 00 00 03 ff c0 00 00 07 ff c0 00 00     ................
     cad:	0f ff 80 00 00 1f ff 00 00 00 3f ff 00 00 00 7f     ..........?.....
     cbd:	fe 00 00 00 ff fc 00 00 01 ff f8 00 00 03 ff f0     ................
     ccd:	00 00 07 ff e0 00 00 0f ff c0 00 00 1f ff 80 00     ................
     cdd:	00 3f ff 00 00 00 7f fe 00 00 00 ff fc 00 00 01     .?..............
     ced:	ff f8 00 00 03 ff f0 00 00 07 ff e0 00 00 0f ff     ................
     cfd:	c0 00 00 1f ff 80 00 00 1f ff 00 00 00 3f fe 00     .............?..
     d0d:	00 00 3f fc 00 00 00 3f ff ff ff e0 3f ff ff ff     ..?....?....?...
     d1d:	e0 3f ff ff ff e0 3f ff ff ff e0 3f ff ff ff e0     .?....?....?....
     d2d:	3f ff ff ff e0 3f ff ff ff e0 3f ff ff ff e0 00     ?....?....?.....
     d3d:	3f ff c0 00 00 ff ff f0 00 01 ff ff f8 00 03 ff     ?...............
     d4d:	ff fe 00 07 ff ff ff 00 0f ff ff ff 80 0f ff ff     ................
     d5d:	ff c0 0f f0 01 ff c0 0f c0 00 ff c0 0f c0 00 7f     ................
     d6d:	c0 0f c0 00 7f c0 0f 80 00 3f c0 00 00 00 3f c0     .........?....?.
     d7d:	00 00 00 3f c0 00 00 00 3f c0 00 00 00 3f c0 00     ...?....?....?..
     d8d:	00 00 7f c0 00 00 00 7f c0 00 00 00 ff c0 00 00     ................
     d9d:	03 ff c0 00 3f ff ff 80 00 7f ff ff 00 00 7f ff     ....?...........
     dad:	fc 00 00 7f ff f0 00 00 7f ff ff 00 00 7f ff ff     ................
     dbd:	80 00 7f ff ff c0 00 3f ff ff c0 00 00 03 ff c0     .......?........
     dcd:	00 00 01 ff c0 00 00 00 7f c0 00 00 00 7f c0 00     ................
     ddd:	00 00 3f c0 00 00 00 3f c0 00 00 00 3f c0 00 00     ..?....?....?...
     ded:	00 3f c0 00 00 00 3f c0 0f 80 00 3f c0 0f c0 00     .?....?....?....
     dfd:	7f c0 0f c0 00 7f c0 0f c0 00 ff c0 0f f0 01 ff     ................
     e0d:	c0 0f ff ff ff 80 0f ff ff ff 00 07 ff ff ff 00     ................
     e1d:	03 ff ff fe 00 01 ff ff fc 00 00 ff ff f0 00 00     ................
     e2d:	3f ff c0 00 00 00 03 fe 00 00 00 07 fe 00 00 00     ?...............
     e3d:	0f fe 00 00 00 1f fe 00 00 00 3f fe 00 00 00 7f     ..........?.....
     e4d:	fe 00 00 00 ff fe 00 00 01 ff fe 00 00 03 ff fe     ................
     e5d:	00 00 07 ff fe 00 00 0f ff fe 00 00 1f fd fe 00     ................
     e6d:	00 3f f9 fe 00 00 7f f1 fe 00 00 ff e1 fe 00 01     .?..............
     e7d:	ff c1 fe 00 03 ff 81 fe 00 07 ff 01 fe 00 0f fe     ................
     e8d:	01 fe 00 1f fc 01 fe 00 3f f8 01 fe 00 7f f0 01     ........?.......
     e9d:	fe 00 ff e0 01 fe 00 ff c0 01 fe 00 ff ff ff ff     ................
     ead:	e0 ff ff ff ff e0 ff ff ff ff e0 ff ff ff ff e0     ................
     ebd:	ff ff ff ff e0 ff ff ff ff e0 ff ff ff ff e0 00     ................
     ecd:	00 01 fe 00 00 00 01 fe 00 00 00 01 fe 00 00 00     ................
     edd:	01 fe 00 00 00 01 fe 00 00 00 01 fe 00 00 00 01     ................
     eed:	fe 00 00 00 01 fe 00 00 00 01 fe 00 00 00 01 fe     ................
     efd:	00 00 00 01 fe 00 00 00 01 fe 00 00 00 01 fe 00     ................
     f0d:	00 00 01 fe 00 00 00 01 fe 00 00 00 01 fe 00 00     ................
     f1d:	00 01 fe 00 00 00 01 fe 00 1f ff ff ff c0 3f ff     ..............?.
     f2d:	ff ff c0 3f ff ff ff c0 3f ff ff ff c0 3f ff ff     ...?....?....?..
     f3d:	ff c0 3f ff ff ff c0 3f ff ff ff c0 3f ff ff ff     ..?....?....?...
     f4d:	c0 3f ff ff ff c0 3f e0 00 00 00 3f e0 00 00 00     .?....?....?....
     f5d:	3f e0 00 00 00 3f e0 00 00 00 3f e0 00 00 00 3f     ?....?....?....?
     f6d:	e0 00 00 00 3f e0 00 00 00 3f e0 00 00 00 3f e3     ....?....?....?.
     f7d:	ff fc 00 3f e7 ff fe 00 3f ef ff ff 00 3f ff ff     ...?....?....?..
     f8d:	ff 80 3f ff ff ff c0 3f ff ff ff e0 3f ff ff ff     ..?....?....?...
     f9d:	e0 3f ff ff ff f0 3f fc 00 7f f0 3f f0 00 3f f8     .?....?....?..?.
     fad:	3f e0 00 1f f8 00 00 00 0f f8 00 00 00 07 f8 00     ?...............
     fbd:	00 00 07 f8 00 00 00 07 f8 00 00 00 07 f8 00 00     ................
     fcd:	00 07 f8 00 00 00 07 f8 3f e0 00 07 f8 3f e0 00     ........?....?..
     fdd:	07 f8 3f e0 00 0f f8 3f f0 00 1f f8 3f f0 00 3f     ..?....?....?..?
     fed:	f8 3f f8 00 7f f8 3f ff ff ff f0 3f ff ff ff f0     .?....?....?....
     ffd:	3f ff ff ff e0 1f ff ff ff c0 0f ff ff ff 80 07     ?...............
    100d:	ff ff ff 00 03 ff ff fe 00 01 ff ff fc 00 01 ff     ................
    101d:	ff 80 00 03 ff ff e0 00 0f ff ff f8 00 1f ff ff     ................
    102d:	fc 00 3f ff ff fe 00 3f ff ff ff 00 7f ff ff ff     ..?....?........
    103d:	00 7f ff ff ff 00 ff f0 03 ff 00 ff e0 01 ff 00     ................
    104d:	ff c0 01 ff 00 ff 80 00 ff 00 ff 80 00 7f 00 ff     ................
    105d:	80 00 7f 00 ff 80 00 00 00 ff 80 00 00 00 ff 80     ................
    106d:	00 00 00 ff 80 00 00 00 ff 80 00 00 00 ff 80 00     ................
    107d:	00 00 ff 9f fe 00 00 ff bf ff 80 00 ff ff ff e0     ................
    108d:	00 ff ff ff f0 00 ff ff ff f8 00 ff ff ff fc 00     ................
    109d:	ff ff ff fe 00 ff ff ff fe 00 ff ff ff ff 00 ff     ................
    10ad:	e0 03 ff 00 ff c0 01 ff 00 ff c0 01 ff 00 ff 80     ................
    10bd:	00 ff 00 ff 80 00 ff 00 ff 80 00 ff 00 ff 80 00     ................
    10cd:	ff 00 ff 80 00 ff 00 ff 80 00 ff 00 ff 80 01 ff     ................
    10dd:	00 ff c0 01 ff 00 ff e0 03 ff 00 ff ff ff ff 00     ................
    10ed:	ff ff ff ff 00 ff ff ff ff 00 7f ff ff fe 00 7f     ................
    10fd:	ff ff fe 00 3f ff ff fc 00 1f ff ff f8 00 0f ff     ....?...........
    110d:	ff f0 00 3f ff ff ff 80 3f ff ff ff 80 3f ff ff     ...?....?....?..
    111d:	ff 80 3f ff ff ff 80 3f ff ff ff 80 3f ff ff ff     ..?....?....?...
    112d:	80 3f ff ff ff 80 3f ff ff ff 80 3f ff ff ff 80     .?....?....?....
    113d:	00 00 07 ff 80 00 00 07 ff 80 00 00 07 ff 80 00     ................
    114d:	00 0f ff 00 00 00 0f ff 00 00 00 1f fe 00 00 00     ................
    115d:	1f fe 00 00 00 1f fe 00 00 00 3f fc 00 00 00 3f     ..........?....?
    116d:	fc 00 00 00 7f f8 00 00 00 7f f8 00 00 00 7f f8     ................
    117d:	00 00 00 ff f0 00 00 00 ff f0 00 00 01 ff e0 00     ................
    118d:	00 01 ff e0 00 00 01 ff e0 00 00 03 ff c0 00 00     ................
    119d:	03 ff c0 00 00 07 ff 80 00 00 07 ff 80 00 00 07     ................
    11ad:	ff 80 00 00 0f ff 00 00 00 0f ff 00 00 00 1f fe     ................
    11bd:	00 00 00 1f fe 00 00 00 1f fe 00 00 00 3f fc 00     .............?..
    11cd:	00 00 3f fc 00 00 00 7f f8 00 00 00 7f f8 00 00     ..?.............
    11dd:	00 7f f8 00 00 00 ff f0 00 00 00 ff f0 00 00 01     ................
    11ed:	ff e0 00 00 01 ff e0 00 00 01 ff e0 00 00 03 ff     ................
    11fd:	c0 00 00 03 ff c0 00 00 01 ff ff c0 00 07 ff ff     ................
    120d:	f0 00 0f ff ff f8 00 1f ff ff fc 00 3f ff ff fe     ............?...
    121d:	00 7f ff ff ff 00 7f ff ff ff 00 7f ff ff ff 00     ................
    122d:	ff ff ff ff 80 ff e0 03 ff 80 ff c0 01 ff 80 ff     ................
    123d:	80 00 ff 80 ff 00 00 7f 80 ff 00 00 7f 80 ff 00     ................
    124d:	00 7f 80 ff 00 00 7f 80 ff 00 00 7f 80 ff 00 00     ................
    125d:	7f 80 ff 80 00 ff 80 ff c0 01 ff 80 ff e0 03 ff     ................
    126d:	80 7f ff ff ff 00 7f ff ff ff 00 3f ff ff fe 00     ...........?....
    127d:	1f ff ff fc 00 3f ff ff fe 00 7f ff ff ff 00 7f     .....?..........
    128d:	ff ff ff 00 ff ff ff ff 80 ff e0 03 ff 80 ff c0     ................
    129d:	01 ff 80 ff 80 00 ff 80 ff 00 00 7f 80 ff 00 00     ................
    12ad:	7f 80 ff 00 00 7f 80 ff 00 00 7f 80 ff 00 00 7f     ................
    12bd:	80 ff 00 00 7f 80 ff 80 00 ff 80 ff c0 01 ff 80     ................
    12cd:	ff e0 03 ff 80 7f ff ff ff 00 7f ff ff ff 00 7f     ................
    12dd:	ff ff ff 00 3f ff ff fe 00 1f ff ff fc 00 0f ff     ....?...........
    12ed:	ff f8 00 07 ff ff f0 00 01 ff ff c0 00 07 ff ff     ................
    12fd:	80 00 1f ff ff e0 00 3f ff ff f0 00 7f ff ff f8     .......?........
    130d:	00 7f ff ff f8 00 ff ff ff fc 00 ff ff ff fc 00     ................
    131d:	ff ff ff fc 00 ff e0 1f fc 00 ff c0 0f fc 00 ff     ................
    132d:	80 07 fc 00 ff 80 07 fc 00 ff 80 07 fc 00 ff 80     ................
    133d:	07 fc 00 ff 80 07 fc 00 ff 80 07 fc 00 ff 80 07     ................
    134d:	fc 00 ff c0 0f fc 00 ff e0 1f fc 00 ff ff ff fc     ................
    135d:	00 ff ff ff fc 00 ff ff ff fc 00 7f ff ff fc 00     ................
    136d:	7f ff ff fc 00 3f ff ff fc 00 1f ff ff fc 00 07     .....?..........
    137d:	ff ff fc 00 00 00 07 fc 00 00 00 07 fc 00 00 00     ................
    138d:	07 fc 00 00 00 07 fc 00 00 00 07 fc 00 00 00 07     ................
    139d:	fc 00 00 00 07 fc 00 00 00 07 fc 00 ff 80 07 fc     ................
    13ad:	00 ff 80 07 fc 00 ff 80 07 fc 00 ff 80 07 fc 00     ................
    13bd:	ff c0 0f fc 00 ff e0 1f fc 00 ff ff ff fc 00 ff     ................
    13cd:	ff ff fc 00 ff ff ff fc 00 7f ff ff f8 00 7f ff     ................
    13dd:	ff f8 00 3f ff ff f0 00 1f ff ff e0 00 07 ff ff     ...?............
    13ed:	80 00                                               ..

000013ef <arial_numerical_temp_6_49x40>:
    13ef:	01 ff ff 80 00 03 ff ff e0 00 0f ff ff f8 00 1f     ................
    13ff:	ff ff fc 00 3f ff ff fe 00 3f ff ff ff 00 7f ff     ....?....?......
    140f:	ff ff 00 7f ff ff ff 00 ff f0 03 ff 00 ff e0 01     ................
    141f:	ff 00 ff c0 01 ff 00 ff 80 00 ff 00 ff 80 00 7f     ................
    142f:	00 ff 80 00 7f 00 ff 80 00 00 00 ff 80 00 00 00     ................
    143f:	ff 80 00 00 00 ff 80 00 00 00 ff 80 00 00 00 ff     ................
    144f:	80 00 00 00 ff 9f fe 00 00 ff bf ff 80 00 ff ff     ................
    145f:	ff e0 00 ff ff ff f0 00 ff ff ff f8 00 ff ff ff     ................
    146f:	fc 00 ff ff ff fe 00 ff ff ff fe 00 ff ff ff ff     ................
    147f:	00 ff e0 03 ff 00 ff c0 01 ff 00 ff c0 01 ff 00     ................
    148f:	ff 80 00 ff 00 ff 80 00 ff 00 ff 80 00 ff 00 ff     ................
    149f:	80 00 ff 00 ff 80 00 ff 00 ff 80 00 ff 00 ff 80     ................
    14af:	01 ff 00 ff c0 01 ff 00 ff e0 03 ff 00 ff ff ff     ................
    14bf:	ff 00 ff ff ff ff 00 ff ff ff ff 00 7f ff ff fe     ................
    14cf:	00 7f ff ff fe 00 3f ff ff fc 00 1f ff ff f8 00     ......?.........
    14df:	0f ff ff f0 00                                      .....

000014e4 <arial_numerical_temp_5_49x40>:
    14e4:	1f ff ff ff c0 3f ff ff ff c0 3f ff ff ff c0 3f     .....?....?....?
    14f4:	ff ff ff c0 3f ff ff ff c0 3f ff ff ff c0 3f ff     ....?....?....?.
    1504:	ff ff c0 3f ff ff ff c0 3f ff ff ff c0 3f e0 00     ...?....?....?..
    1514:	00 00 3f e0 00 00 00 3f e0 00 00 00 3f e0 00 00     ..?....?....?...
    1524:	00 3f e0 00 00 00 3f e0 00 00 00 3f e0 00 00 00     .?....?....?....
    1534:	3f e0 00 00 00 3f e3 ff fc 00 3f e7 ff fe 00 3f     ?....?....?....?
    1544:	ef ff ff 00 3f ff ff ff 80 3f ff ff ff c0 3f ff     ....?....?....?.
    1554:	ff ff e0 3f ff ff ff e0 3f ff ff ff f0 3f fc 00     ...?....?....?..
    1564:	7f f0 3f f0 00 3f f8 3f e0 00 1f f8 00 00 00 0f     ..?..?.?........
    1574:	f8 00 00 00 07 f8 00 00 00 07 f8 00 00 00 07 f8     ................
    1584:	00 00 00 07 f8 00 00 00 07 f8 00 00 00 07 f8 3f     ...............?
    1594:	e0 00 07 f8 3f e0 00 07 f8 3f e0 00 0f f8 3f f0     ....?....?....?.
    15a4:	00 1f f8 3f f0 00 3f f8 3f f8 00 7f f8 3f ff ff     ...?..?.?....?..
    15b4:	ff f0 3f ff ff ff f0 3f ff ff ff e0 1f ff ff ff     ..?....?........
    15c4:	c0 0f ff ff ff 80 07 ff ff ff 00 03 ff ff fe 00     ................
    15d4:	01 ff ff fc 00                                      .....

000015d9 <arial_numerical_temp_4_49x40>:
    15d9:	00 00 03 fe 00 00 00 07 fe 00 00 00 0f fe 00 00     ................
    15e9:	00 1f fe 00 00 00 3f fe 00 00 00 7f fe 00 00 00     ......?.........
    15f9:	ff fe 00 00 01 ff fe 00 00 03 ff fe 00 00 07 ff     ................
    1609:	fe 00 00 0f ff fe 00 00 1f fd fe 00 00 3f f9 fe     .............?..
    1619:	00 00 7f f1 fe 00 00 ff e1 fe 00 01 ff c1 fe 00     ................
    1629:	03 ff 81 fe 00 07 ff 01 fe 00 0f fe 01 fe 00 1f     ................
    1639:	fc 01 fe 00 3f f8 01 fe 00 7f f0 01 fe 00 ff e0     ....?...........
    1649:	01 fe 00 ff c0 01 fe 00 ff ff ff ff e0 ff ff ff     ................
    1659:	ff e0 ff ff ff ff e0 ff ff ff ff e0 ff ff ff ff     ................
    1669:	e0 ff ff ff ff e0 ff ff ff ff e0 00 00 01 fe 00     ................
    1679:	00 00 01 fe 00 00 00 01 fe 00 00 00 01 fe 00 00     ................
    1689:	00 01 fe 00 00 00 01 fe 00 00 00 01 fe 00 00 00     ................
    1699:	01 fe 00 00 00 01 fe 00 00 00 01 fe 00 00 00 01     ................
    16a9:	fe 00 00 00 01 fe 00 00 00 01 fe 00 00 00 01 fe     ................
    16b9:	00 00 00 01 fe 00 00 00 01 fe 00 00 00 01 fe 00     ................
    16c9:	00 00 01 fe 00                                      .....

000016ce <arial_numerical_temp_3_49x40>:
    16ce:	00 3f ff c0 00 00 ff ff f0 00 01 ff ff f8 00 03     .?..............
    16de:	ff ff fe 00 07 ff ff ff 00 0f ff ff ff 80 0f ff     ................
    16ee:	ff ff c0 0f f0 01 ff c0 0f c0 00 ff c0 0f c0 00     ................
    16fe:	7f c0 0f c0 00 7f c0 0f 80 00 3f c0 00 00 00 3f     ..........?....?
    170e:	c0 00 00 00 3f c0 00 00 00 3f c0 00 00 00 3f c0     ....?....?....?.
    171e:	00 00 00 7f c0 00 00 00 7f c0 00 00 00 ff c0 00     ................
    172e:	00 03 ff c0 00 3f ff ff 80 00 7f ff ff 00 00 7f     .....?..........
    173e:	ff fc 00 00 7f ff f0 00 00 7f ff ff 00 00 7f ff     ................
    174e:	ff 80 00 7f ff ff c0 00 3f ff ff c0 00 00 03 ff     ........?.......
    175e:	c0 00 00 01 ff c0 00 00 00 7f c0 00 00 00 7f c0     ................
    176e:	00 00 00 3f c0 00 00 00 3f c0 00 00 00 3f c0 00     ...?....?....?..
    177e:	00 00 3f c0 00 00 00 3f c0 0f 80 00 3f c0 0f c0     ..?....?....?...
    178e:	00 7f c0 0f c0 00 7f c0 0f c0 00 ff c0 0f f0 01     ................
    179e:	ff c0 0f ff ff ff 80 0f ff ff ff 00 07 ff ff ff     ................
    17ae:	00 03 ff ff fe 00 01 ff ff fc 00 00 ff ff f0 00     ................
    17be:	00 3f ff c0 00                                      .?...

000017c3 <arial_numerical_temp_2_49x40>:
    17c3:	00 0f ff 80 00 00 3f ff e0 00 00 7f ff f8 00 00     ......?.........
    17d3:	ff ff fc 00 01 ff ff fe 00 03 ff ff ff 00 07 ff     ................
    17e3:	ff ff 80 07 ff ff ff c0 0f fc 03 ff c0 0f f8 01     ................
    17f3:	ff e0 1f f0 00 ff e0 1f f0 00 7f e0 1f f0 00 7f     ................
    1803:	e0 1f f0 00 7f e0 1f f0 00 7f e0 1f f0 00 7f e0     ................
    1813:	00 00 00 ff e0 00 00 01 ff c0 00 00 03 ff c0 00     ................
    1823:	00 07 ff c0 00 00 0f ff 80 00 00 1f ff 00 00 00     ................
    1833:	3f ff 00 00 00 7f fe 00 00 00 ff fc 00 00 01 ff     ?...............
    1843:	f8 00 00 03 ff f0 00 00 07 ff e0 00 00 0f ff c0     ................
    1853:	00 00 1f ff 80 00 00 3f ff 00 00 00 7f fe 00 00     .......?........
    1863:	00 ff fc 00 00 01 ff f8 00 00 03 ff f0 00 00 07     ................
    1873:	ff e0 00 00 0f ff c0 00 00 1f ff 80 00 00 1f ff     ................
    1883:	00 00 00 3f fe 00 00 00 3f fc 00 00 00 3f ff ff     ...?....?....?..
    1893:	ff e0 3f ff ff ff e0 3f ff ff ff e0 3f ff ff ff     ..?....?....?...
    18a3:	e0 3f ff ff ff e0 3f ff ff ff e0 3f ff ff ff e0     .?....?....?....
    18b3:	3f ff ff ff e0                                      ?....

000018b8 <jersey_numerical_temp_0_49x40>:
    18b8:	07 ff ff 80 00 1f ff ff e0 00 3f ff ff f0 00 7f     ..........?.....
    18c8:	ff ff f8 00 7f ff ff f8 00 ff ff ff fc 00 ff ff     ................
    18d8:	ff fc 00 ff ff ff fc 00 ff e0 1f fc 00 ff c0 0f     ................
    18e8:	fc 00 ff 80 07 fc 00 ff 80 07 fc 00 ff 80 07 fc     ................
    18f8:	00 ff 80 07 fc 00 ff 80 07 fc 00 ff 80 07 fc 00     ................
    1908:	ff 80 07 fc 00 ff 80 07 fc 00 ff 80 07 fc 00 ff     ................
    1918:	80 07 fc 00 ff 80 07 fc 00 ff 80 07 fc 00 ff 80     ................
    1928:	07 fc 00 ff 80 07 fc 00 ff 80 07 fc 00 ff 80 07     ................
    1938:	fc 00 ff 80 07 fc 00 ff 80 07 fc 00 ff 80 07 fc     ................
    1948:	00 ff 80 07 fc 00 ff 80 07 fc 00 ff 80 07 fc 00     ................
    1958:	ff 80 07 fc 00 ff 80 07 fc 00 ff 80 07 fc 00 ff     ................
    1968:	80 07 fc 00 ff 80 07 fc 00 ff 80 07 fc 00 ff 80     ................
    1978:	07 fc 00 ff c0 0f fc 00 ff e0 1f fc 00 ff ff ff     ................
    1988:	fc 00 ff ff ff fc 00 ff ff ff fc 00 7f ff ff f8     ................
    1998:	00 7f ff ff f8 00 3f ff ff f0 00 1f ff ff e0 00     ......?.........
    19a8:	07 ff ff 80 00                                      .....

000019ad <animation_3_foot_24x33>:
	...
    19b9:	00 00 00 06 00 00 00 00 0f 80 00 00 00 0f c0 00     ................
    19c9:	00 00 17 f0 00 00 00 0b fc 00 00 00 05 f9 00 00     ................
    19d9:	00 3a f3 80 00 00 3d 7f bc 00 00 3e bf 38 00 00     .:....=....>.8..
    19e9:	1f 5e 78 00 00 0f af fc 00 00 07 c7 fe 00 00 03     .^x.............
    19f9:	e3 ff 10 00 07 f1 ff f0 00 0f fa ff e0 00 0f fd     ................
    1a09:	7f c0 00 0f 3e bf 80 00 0f 1e 5f 00 00 0f 0e 2e     ....>....._.....
    1a19:	00 00 3f ff ff f0 00 3f ff ff f0 00                 ..?....?....

00001a25 <animation_2_foot_24x33>:
    1a25:	00 00 00 00 00 01 80 00 00 00 03 e0 00 00 00 03     ................
    1a35:	f0 00 00 00 05 fc 00 00 00 02 ff 00 00 00 01 7e     ...............~
    1a45:	40 00 00 0e bc e0 00 00 0f 5f ef 00 00 0f af ce     @........_......
    1a55:	00 00 07 d7 9e 00 00 03 eb ff 00 00 01 f1 ff 80     ................
    1a65:	00 00 f8 ff c4 00 01 fc 7f fc 00 03 fe bf f8 00     ................
    1a75:	07 ff 5f f0 00 0f cf af e0 00 0f 87 97 c0 00 0f     .._.............
    1a85:	03 8b 80 00 0f 00 05 00 00 0f 00 02 00 00 3f ff     ..............?.
    1a95:	ff f0 00 3f ff ff f0 00                             ...?....

00001a9d <animation_1_foot_24x33>:
    1a9d:	00 60 00 00 00 00 f8 00 00 00 00 fc 00 00 00 01     .`..............
    1aad:	7f 00 00 00 00 bf c0 00 00 00 5f 90 00 00 00 2f     .........._..../
    1abd:	38 00 00 0e 17 fb c0 00 0f 0b f3 80 00 0f 85 e7     8...............
    1acd:	80 00 07 c2 ff c0 00 03 e0 7f e0 00 01 f0 3f f1     ..............?.
    1add:	00 00 f8 1f ff 00 01 fc 2f fe 00 03 fe 17 fc 00     ......../.......
    1aed:	07 ff 0b f8 00 0f cf 85 f0 00 0f 87 82 e0 00 0f     ................
    1afd:	03 81 40 00 0f 00 00 80 00 0f 00 00 00 00 3f ff     ..@...........?.
    1b0d:	ff f0 00 3f ff ff f0 00                             ...?....

00001b15 <temp_lpm_15x36>:
    1b15:	c0 00 00 00 00 c0 00 00 00 00 c0 00 00 00 00 c0     ................
    1b25:	00 00 00 00 c7 e3 9c 00 00 cf e7 fe 00 00 cc 66     ...............f
    1b35:	66 00 00 cc 66 66 00 00 cf e6 66 00 00 cf e6 66     f...ff....f....f
    1b45:	00 00 cc 06 66 00 00 cc 06 66 00 00 0c 00 00 00     ....f....f......
    1b55:	00 0c 00 00 00 00 0c 00 00 00 00                    ...........

00001b60 <temp_powersave_27x40>:
	...
    1b6c:	f0 00 00 00 00 e0 00 00 00 01 c0 00 00 00 01 80     ................
    1b7c:	00 00 00 03 fc 00 00 00 07 f8 00 00 00 00 70 00     ..............p.
    1b8c:	00 00 00 60 00 00 00 00 c0 00 00 00 01 80 00 00     ...`............
    1b9c:	1c 03 00 00 00 3e 00 00 00 00 63 3f f0 0f 00 63     .....>....c?...c
    1bac:	7f f8 1f 80 63 c0 18 31 80 63 80 18 61 80 63 00     ....c..1.c..a.c.
    1bbc:	38 c3 00 63 1f ff 86 00 63 1f ff 0c 00 63 00 00     8..c....c....c..
    1bcc:	18 00 63 00 00 30 00 63 ff ff e0 00 63 ff ff c0     ..c..0.c....c...
    1bdc:	00 3e 00 00 00 00 1c 00 00 00 00                    .>.........

00001be7 <temp_decimal_1_6x8>:
    1be7:	7e 7e 7e 7e 00 00                                   ~~~~..

00001bed <temp_mpa_14x54>:
    1bed:	18 19 fc 00 00 00 00 1c 39 fe 00 00 00 00 1e 79     ........9......y
    1bfd:	86 00 00 00 00 1e 79 86 00 00 00 00 1b d9 86 3d     ......y........=
    1c0d:	80 00 00 19 99 86 7f 80 00 00 19 99 fe 63 80 00     .............c..
    1c1d:	00 18 19 fc 61 80 00 00 18 19 80 61 80 00 00 18     ....a......a....
    1c2d:	19 80 61 80 00 00 18 19 80 63 80 00 00 18 19 80     ..a......c......
    1c3d:	7f 80 00 00 18 19 80 3d 80 00 00 00 00 00 00 00     .......=........
	...

00001c4f <temp_cmh2o_13x54>:
    1c4f:	00 00 03 0c 00 00 00 3e 1c e3 0c 7c 3e 00 7f 3f     .......>...|>..?
    1c5f:	f3 0c fe 7f 00 c3 33 33 0c c6 63 00 c0 33 33 0c     ......33..c..33.
    1c6f:	06 63 00 c0 33 33 fc 0e 63 00 c0 33 33 fc 1c 63     .c..33..c..33..c
    1c7f:	00 c0 33 33 0c 38 63 00 c0 33 33 0c 70 63 00 c3     ..33.8c..33.pc..
    1c8f:	33 33 0c e0 63 00 7f 33 33 0c fe 7f 00 3e 33 33     33..c..33....>33
    1c9f:	0c fe 3e 00 00 00 00 00 00 00 00                    ..>........

00001caa <temp_2_mmhg_13x48>:
    1caa:	00 00 00 c6 00 00 73 87 38 c6 03 00 ff cf fc c6     ......s.8.......
    1cba:	3f 00 cc cc cc fe 7f 00 cc cc cc fe 63 00 cc cc     ?...........c...
    1cca:	cc c6 63 00 cc cc cc c6 7f 00 cc cc cc c6 3f 00     ..c...........?.
    1cda:	cc cc cc c6 03 00 00 00 00 00 03 00 00 00 00 00     ................
    1cea:	63 00 00 00 00 00 7f 00 00 00 00 00 3e 00           c...........>.

00001cf8 <POWER_ON_48X8>:
    1cf8:	71 c9 2f 78 39 88 8a 29 28 48 45 88 8a 29 28 48     q./x9..)(HE..)(H
    1d08:	45 48 8a 29 2f 48 45 48 f2 29 28 78 45 28 82 29     EH.)/HEH.)(xE(.)
    1d18:	28 60 45 28 82 29 28 50 45 18 81 c6 cf 48 39 18     (`E(.)(PE....H9.

00001d28 <AgVa_logo_56x30>:
    1d28:	3f 80 00 78 1e 00 00 7f c0 00 78 1e 00 00 ff e0     ?..x......x.....
    1d38:	00 78 1e 00 00 ff e0 00 38 1c 00 00 e0 e0 00 3c     .x......8......<
    1d48:	3c 00 00 e0 e0 00 3c 3c 00 00 e0 e0 00 3c 3c 00     <.....<<.....<<.
    1d58:	00 e0 e0 00 3c 3c 00 00 e0 e0 00 1e 78 7f 00 e0     ....<<......x...
    1d68:	e1 fe 1e 78 ff 80 ff e3 ff 1e 78 ff 80 ff e3 ff     ...x......x.....
    1d78:	1e 78 e3 80 ff e3 ff 0e 70 e3 80 ff e3 87 0f f0     .x......p.......
    1d88:	e3 80 e0 e3 87 0f f0 e3 80 e0 e3 87 0f f0 e3 80     ................
    1d98:	e0 e3 ff 07 e0 ff e0 e0 e3 fe 07 e0 ff e0 e0 e1     ................
    1da8:	c0 07 e0 7e e0 00 01 c0 00 00 00 00 00 01 ff 00     ...~............
    1db8:	00 00 00 00 03 ff 80 00 00 00 00 03 ff 80 00 00     ................
    1dc8:	00 00 03 83 80 00 00 00 00 03 83 80 00 00 00 00     ................
    1dd8:	03 83 80 00 00 00 00 03 ff 80 00 00 00 00 03 ff     ................
    1de8:	80 00 00 00 00 01 ff 00 00 00 00 00 00 00 00 00     ................
	...

00001dfa <service_required_26x32>:
    1dfa:	00 1e 00 00 00 3f 00 00 00 3f 00 00 00 73 80 00     .....?...?...s..
    1e0a:	00 61 80 00 00 e1 c0 00 00 c0 c0 00 01 c0 e0 00     .a..............
    1e1a:	01 80 60 00 03 9c 70 00 03 3e 30 00 07 7f 38 00     ..`...p..>0...8.
    1e2a:	06 07 18 00 0e 07 1c 00 0c 7f 8c 00 1c 3f ce 00     .............?..
    1e3a:	18 1f e6 00 38 01 f7 00 30 00 f3 00 70 00 7b 80     ....8...0...p.{.
    1e4a:	60 00 39 80 e0 00 19 c0 c0 00 00 c0 c0 00 00 c0     `.9.............
    1e5a:	ff ff ff c0 7f ff ff 80                             ........

00001e62 <__ctors_end>:
    1e62:	11 24       	eor	r1, r1
    1e64:	1f be       	out	0x3f, r1	; 63
    1e66:	cf ef       	ldi	r28, 0xFF	; 255
    1e68:	cd bf       	out	0x3d, r28	; 61
    1e6a:	df e7       	ldi	r29, 0x7F	; 127
    1e6c:	de bf       	out	0x3e, r29	; 62

00001e6e <__do_copy_data>:
    1e6e:	12 e4       	ldi	r17, 0x42	; 66
    1e70:	a0 e0       	ldi	r26, 0x00	; 0
    1e72:	b0 e4       	ldi	r27, 0x40	; 64
    1e74:	ec e8       	ldi	r30, 0x8C	; 140
    1e76:	fd e5       	ldi	r31, 0x5D	; 93
    1e78:	00 e0       	ldi	r16, 0x00	; 0
    1e7a:	0b bf       	out	0x3b, r16	; 59
    1e7c:	02 c0       	rjmp	.+4      	; 0x1e82 <__do_copy_data+0x14>
    1e7e:	07 90       	elpm	r0, Z+
    1e80:	0d 92       	st	X+, r0
    1e82:	ae 34       	cpi	r26, 0x4E	; 78
    1e84:	b1 07       	cpc	r27, r17
    1e86:	d9 f7       	brne	.-10     	; 0x1e7e <__do_copy_data+0x10>

00001e88 <__do_clear_bss>:
    1e88:	22 e4       	ldi	r18, 0x42	; 66
    1e8a:	ae e4       	ldi	r26, 0x4E	; 78
    1e8c:	b2 e4       	ldi	r27, 0x42	; 66
    1e8e:	01 c0       	rjmp	.+2      	; 0x1e92 <.do_clear_bss_start>

00001e90 <.do_clear_bss_loop>:
    1e90:	1d 92       	st	X+, r1

00001e92 <.do_clear_bss_start>:
    1e92:	af 3f       	cpi	r26, 0xFF	; 255
    1e94:	b2 07       	cpc	r27, r18
    1e96:	e1 f7       	brne	.-8      	; 0x1e90 <.do_clear_bss_loop>
    1e98:	0e 94 5d 29 	call	0x52ba	; 0x52ba <main>
    1e9c:	0c 94 c4 2e 	jmp	0x5d88	; 0x5d88 <_exit>

00001ea0 <__bad_interrupt>:
    1ea0:	0c 94 00 00 	jmp	0	; 0x0 <__vectors>

00001ea4 <reverse>:
#include "Dc_suction_declarations.h"

void alarms_main (void)
{
	NTC_check(temperature);
    1ea4:	61 50       	subi	r22, 0x01	; 1
    1ea6:	71 09       	sbc	r23, r1
    1ea8:	20 e0       	ldi	r18, 0x00	; 0
    1eaa:	30 e0       	ldi	r19, 0x00	; 0
    1eac:	0e c0       	rjmp	.+28     	; 0x1eca <reverse+0x26>
    1eae:	dc 01       	movw	r26, r24
    1eb0:	a2 0f       	add	r26, r18
    1eb2:	b3 1f       	adc	r27, r19
    1eb4:	4c 91       	ld	r20, X
    1eb6:	fc 01       	movw	r30, r24
    1eb8:	e6 0f       	add	r30, r22
    1eba:	f7 1f       	adc	r31, r23
    1ebc:	50 81       	ld	r21, Z
    1ebe:	5c 93       	st	X, r21
    1ec0:	40 83       	st	Z, r20
    1ec2:	2f 5f       	subi	r18, 0xFF	; 255
    1ec4:	3f 4f       	sbci	r19, 0xFF	; 255
    1ec6:	61 50       	subi	r22, 0x01	; 1
    1ec8:	71 09       	sbc	r23, r1
    1eca:	26 17       	cp	r18, r22
    1ecc:	37 07       	cpc	r19, r23
    1ece:	7c f3       	brlt	.-34     	; 0x1eae <reverse+0xa>
    1ed0:	08 95       	ret

00001ed2 <intToStr>:
    1ed2:	cf 92       	push	r12
    1ed4:	df 92       	push	r13
    1ed6:	ef 92       	push	r14
    1ed8:	ff 92       	push	r15
    1eda:	0f 93       	push	r16
    1edc:	1f 93       	push	r17
    1ede:	cf 93       	push	r28
    1ee0:	df 93       	push	r29
    1ee2:	8a 01       	movw	r16, r20
    1ee4:	69 01       	movw	r12, r18
    1ee6:	c0 e0       	ldi	r28, 0x00	; 0
    1ee8:	d0 e0       	ldi	r29, 0x00	; 0
    1eea:	11 c0       	rjmp	.+34     	; 0x1f0e <intToStr+0x3c>
    1eec:	78 01       	movw	r14, r16
    1eee:	ec 0e       	add	r14, r28
    1ef0:	fd 1e       	adc	r15, r29
    1ef2:	2a e0       	ldi	r18, 0x0A	; 10
    1ef4:	30 e0       	ldi	r19, 0x00	; 0
    1ef6:	40 e0       	ldi	r20, 0x00	; 0
    1ef8:	50 e0       	ldi	r21, 0x00	; 0
    1efa:	0e 94 2b 2c 	call	0x5856	; 0x5856 <__divmodsi4>
    1efe:	60 5d       	subi	r22, 0xD0	; 208
    1f00:	f7 01       	movw	r30, r14
    1f02:	60 83       	st	Z, r22
    1f04:	62 2f       	mov	r22, r18
    1f06:	73 2f       	mov	r23, r19
    1f08:	84 2f       	mov	r24, r20
    1f0a:	95 2f       	mov	r25, r21
    1f0c:	21 96       	adiw	r28, 0x01	; 1
    1f0e:	61 15       	cp	r22, r1
    1f10:	71 05       	cpc	r23, r1
    1f12:	81 05       	cpc	r24, r1
    1f14:	91 05       	cpc	r25, r1
    1f16:	51 f7       	brne	.-44     	; 0x1eec <intToStr+0x1a>
    1f18:	06 c0       	rjmp	.+12     	; 0x1f26 <intToStr+0x54>
    1f1a:	f8 01       	movw	r30, r16
    1f1c:	ec 0f       	add	r30, r28
    1f1e:	fd 1f       	adc	r31, r29
    1f20:	80 e3       	ldi	r24, 0x30	; 48
    1f22:	80 83       	st	Z, r24
    1f24:	21 96       	adiw	r28, 0x01	; 1
    1f26:	cc 15       	cp	r28, r12
    1f28:	dd 05       	cpc	r29, r13
    1f2a:	bc f3       	brlt	.-18     	; 0x1f1a <intToStr+0x48>
    1f2c:	be 01       	movw	r22, r28
    1f2e:	c8 01       	movw	r24, r16
    1f30:	0e 94 52 0f 	call	0x1ea4	; 0x1ea4 <reverse>
    1f34:	f8 01       	movw	r30, r16
    1f36:	ec 0f       	add	r30, r28
    1f38:	fd 1f       	adc	r31, r29
    1f3a:	10 82       	st	Z, r1
    1f3c:	ce 01       	movw	r24, r28
    1f3e:	df 91       	pop	r29
    1f40:	cf 91       	pop	r28
    1f42:	1f 91       	pop	r17
    1f44:	0f 91       	pop	r16
    1f46:	ff 90       	pop	r15
    1f48:	ef 90       	pop	r14
    1f4a:	df 90       	pop	r13
    1f4c:	cf 90       	pop	r12
    1f4e:	08 95       	ret

00001f50 <USART1_init>:
    1f50:	e0 e4       	ldi	r30, 0x40	; 64
    1f52:	f4 e0       	ldi	r31, 0x04	; 4
    1f54:	20 81       	ld	r18, Z
    1f56:	2d 7f       	andi	r18, 0xFD	; 253
    1f58:	20 83       	st	Z, r18
    1f5a:	20 81       	ld	r18, Z
    1f5c:	21 60       	ori	r18, 0x01	; 1
    1f5e:	20 83       	st	Z, r18
    1f60:	bc 01       	movw	r22, r24
    1f62:	80 e0       	ldi	r24, 0x00	; 0
    1f64:	90 e0       	ldi	r25, 0x00	; 0
    1f66:	0e 94 d1 2a 	call	0x55a2	; 0x55a2 <__floatunsisf>
    1f6a:	20 e0       	ldi	r18, 0x00	; 0
    1f6c:	30 e0       	ldi	r19, 0x00	; 0
    1f6e:	40 e8       	ldi	r20, 0x80	; 128
    1f70:	51 e4       	ldi	r21, 0x41	; 65
    1f72:	0e 94 88 2b 	call	0x5710	; 0x5710 <__mulsf3>
    1f76:	9b 01       	movw	r18, r22
    1f78:	ac 01       	movw	r20, r24
    1f7a:	60 e0       	ldi	r22, 0x00	; 0
    1f7c:	7b e1       	ldi	r23, 0x1B	; 27
    1f7e:	87 eb       	ldi	r24, 0xB7	; 183
    1f80:	9e e4       	ldi	r25, 0x4E	; 78
    1f82:	0e 94 29 2a 	call	0x5452	; 0x5452 <__divsf3>
    1f86:	20 e0       	ldi	r18, 0x00	; 0
    1f88:	30 e0       	ldi	r19, 0x00	; 0
    1f8a:	40 e0       	ldi	r20, 0x00	; 0
    1f8c:	5f e3       	ldi	r21, 0x3F	; 63
    1f8e:	0e 94 b8 29 	call	0x5370	; 0x5370 <__addsf3>
    1f92:	0e 94 a2 2a 	call	0x5544	; 0x5544 <__fixunssfsi>
    1f96:	e0 e2       	ldi	r30, 0x20	; 32
    1f98:	f8 e0       	ldi	r31, 0x08	; 8
    1f9a:	60 87       	std	Z+8, r22	; 0x08
    1f9c:	71 87       	std	Z+9, r23	; 0x09
    1f9e:	86 81       	ldd	r24, Z+6	; 0x06
    1fa0:	80 6c       	ori	r24, 0xC0	; 192
    1fa2:	86 83       	std	Z+6, r24	; 0x06
    1fa4:	08 95       	ret

00001fa6 <USART1_sendChar>:
    1fa6:	90 91 24 08 	lds	r25, 0x0824	; 0x800824 <__TEXT_REGION_LENGTH__+0x7e0824>
    1faa:	95 ff       	sbrs	r25, 5
    1fac:	fc cf       	rjmp	.-8      	; 0x1fa6 <USART1_sendChar>
    1fae:	80 93 22 08 	sts	0x0822, r24	; 0x800822 <__TEXT_REGION_LENGTH__+0x7e0822>
    1fb2:	08 95       	ret

00001fb4 <USART1_sendString>:
    1fb4:	0f 93       	push	r16
    1fb6:	1f 93       	push	r17
    1fb8:	cf 93       	push	r28
    1fba:	df 93       	push	r29
    1fbc:	8c 01       	movw	r16, r24
    1fbe:	c0 e0       	ldi	r28, 0x00	; 0
    1fc0:	d0 e0       	ldi	r29, 0x00	; 0
    1fc2:	07 c0       	rjmp	.+14     	; 0x1fd2 <USART1_sendString+0x1e>
    1fc4:	f8 01       	movw	r30, r16
    1fc6:	ec 0f       	add	r30, r28
    1fc8:	fd 1f       	adc	r31, r29
    1fca:	80 81       	ld	r24, Z
    1fcc:	0e 94 d3 0f 	call	0x1fa6	; 0x1fa6 <USART1_sendChar>
    1fd0:	21 96       	adiw	r28, 0x01	; 1
    1fd2:	f8 01       	movw	r30, r16
    1fd4:	01 90       	ld	r0, Z+
    1fd6:	00 20       	and	r0, r0
    1fd8:	e9 f7       	brne	.-6      	; 0x1fd4 <USART1_sendString+0x20>
    1fda:	31 97       	sbiw	r30, 0x01	; 1
    1fdc:	e0 1b       	sub	r30, r16
    1fde:	f1 0b       	sbc	r31, r17
    1fe0:	ce 17       	cp	r28, r30
    1fe2:	df 07       	cpc	r29, r31
    1fe4:	78 f3       	brcs	.-34     	; 0x1fc4 <USART1_sendString+0x10>
    1fe6:	8a e0       	ldi	r24, 0x0A	; 10
    1fe8:	0e 94 d3 0f 	call	0x1fa6	; 0x1fa6 <USART1_sendChar>
    1fec:	df 91       	pop	r29
    1fee:	cf 91       	pop	r28
    1ff0:	1f 91       	pop	r17
    1ff2:	0f 91       	pop	r16
    1ff4:	08 95       	ret

00001ff6 <USART1_sendString_without_newline>:
    1ff6:	0f 93       	push	r16
    1ff8:	1f 93       	push	r17
    1ffa:	cf 93       	push	r28
    1ffc:	df 93       	push	r29
    1ffe:	8c 01       	movw	r16, r24
    2000:	c0 e0       	ldi	r28, 0x00	; 0
    2002:	d0 e0       	ldi	r29, 0x00	; 0
    2004:	07 c0       	rjmp	.+14     	; 0x2014 <USART1_sendString_without_newline+0x1e>
    2006:	f8 01       	movw	r30, r16
    2008:	ec 0f       	add	r30, r28
    200a:	fd 1f       	adc	r31, r29
    200c:	80 81       	ld	r24, Z
    200e:	0e 94 d3 0f 	call	0x1fa6	; 0x1fa6 <USART1_sendChar>
    2012:	21 96       	adiw	r28, 0x01	; 1
    2014:	f8 01       	movw	r30, r16
    2016:	01 90       	ld	r0, Z+
    2018:	00 20       	and	r0, r0
    201a:	e9 f7       	brne	.-6      	; 0x2016 <USART1_sendString_without_newline+0x20>
    201c:	31 97       	sbiw	r30, 0x01	; 1
    201e:	e0 1b       	sub	r30, r16
    2020:	f1 0b       	sbc	r31, r17
    2022:	ce 17       	cp	r28, r30
    2024:	df 07       	cpc	r29, r31
    2026:	78 f3       	brcs	.-34     	; 0x2006 <USART1_sendString_without_newline+0x10>
    2028:	df 91       	pop	r29
    202a:	cf 91       	pop	r28
    202c:	1f 91       	pop	r17
    202e:	0f 91       	pop	r16
    2030:	08 95       	ret

00002032 <USART1_sendInt>:
    2032:	20 e0       	ldi	r18, 0x00	; 0
    2034:	30 e0       	ldi	r19, 0x00	; 0
    2036:	48 ec       	ldi	r20, 0xC8	; 200
    2038:	52 e4       	ldi	r21, 0x42	; 66
    203a:	0e 94 69 0f 	call	0x1ed2	; 0x1ed2 <intToStr>
    203e:	88 ec       	ldi	r24, 0xC8	; 200
    2040:	92 e4       	ldi	r25, 0x42	; 66
    2042:	0e 94 da 0f 	call	0x1fb4	; 0x1fb4 <USART1_sendString>
    2046:	08 95       	ret

00002048 <SPI_0_init>:
    2048:	e0 e0       	ldi	r30, 0x00	; 0
    204a:	f4 e0       	ldi	r31, 0x04	; 4
    204c:	80 81       	ld	r24, Z
    204e:	80 68       	ori	r24, 0x80	; 128
    2050:	80 83       	st	Z, r24
    2052:	a4 e0       	ldi	r26, 0x04	; 4
    2054:	b4 e0       	ldi	r27, 0x04	; 4
    2056:	8c 91       	ld	r24, X
    2058:	80 68       	ori	r24, 0x80	; 128
    205a:	8c 93       	st	X, r24
    205c:	80 81       	ld	r24, Z
    205e:	80 61       	ori	r24, 0x10	; 16
    2060:	80 83       	st	Z, r24
    2062:	80 81       	ld	r24, Z
    2064:	80 64       	ori	r24, 0x40	; 64
    2066:	80 83       	st	Z, r24
    2068:	e0 e4       	ldi	r30, 0x40	; 64
    206a:	f9 e0       	ldi	r31, 0x09	; 9
    206c:	80 81       	ld	r24, Z
    206e:	80 63       	ori	r24, 0x30	; 48
    2070:	80 83       	st	Z, r24
    2072:	80 81       	ld	r24, Z
    2074:	81 60       	ori	r24, 0x01	; 1
    2076:	80 83       	st	Z, r24
    2078:	8c 91       	ld	r24, X
    207a:	80 68       	ori	r24, 0x80	; 128
    207c:	8c 93       	st	X, r24
    207e:	08 95       	ret

00002080 <SPI_0_send_char>:
    2080:	80 93 44 09 	sts	0x0944, r24	; 0x800944 <__TEXT_REGION_LENGTH__+0x7e0944>
    2084:	80 91 43 09 	lds	r24, 0x0943	; 0x800943 <__TEXT_REGION_LENGTH__+0x7e0943>
    2088:	88 23       	and	r24, r24
    208a:	e4 f7       	brge	.-8      	; 0x2084 <SPI_0_send_char+0x4>
    208c:	08 95       	ret

0000208e <SPI_0_send_array>:
    208e:	dc 01       	movw	r26, r24
    2090:	20 e0       	ldi	r18, 0x00	; 0
    2092:	30 e0       	ldi	r19, 0x00	; 0
    2094:	0c c0       	rjmp	.+24     	; 0x20ae <SPI_0_send_array+0x20>
    2096:	fd 01       	movw	r30, r26
    2098:	e2 0f       	add	r30, r18
    209a:	f3 1f       	adc	r31, r19
    209c:	90 81       	ld	r25, Z
    209e:	90 93 44 09 	sts	0x0944, r25	; 0x800944 <__TEXT_REGION_LENGTH__+0x7e0944>
    20a2:	90 91 43 09 	lds	r25, 0x0943	; 0x800943 <__TEXT_REGION_LENGTH__+0x7e0943>
    20a6:	99 23       	and	r25, r25
    20a8:	e4 f7       	brge	.-8      	; 0x20a2 <SPI_0_send_array+0x14>
    20aa:	2f 5f       	subi	r18, 0xFF	; 255
    20ac:	3f 4f       	sbci	r19, 0xFF	; 255
    20ae:	46 2f       	mov	r20, r22
    20b0:	50 e0       	ldi	r21, 0x00	; 0
    20b2:	24 17       	cp	r18, r20
    20b4:	35 07       	cpc	r19, r21
    20b6:	7c f3       	brlt	.-34     	; 0x2096 <SPI_0_send_array+0x8>
    20b8:	08 95       	ret

000020ba <I2C_0_initialization>:
    20ba:	e0 e0       	ldi	r30, 0x00	; 0
    20bc:	f9 e0       	ldi	r31, 0x09	; 9
    20be:	80 81       	ld	r24, Z
    20c0:	8f 7e       	andi	r24, 0xEF	; 239
    20c2:	80 83       	st	Z, r24
    20c4:	80 81       	ld	r24, Z
    20c6:	83 7f       	andi	r24, 0xF3	; 243
    20c8:	80 83       	st	Z, r24
    20ca:	80 81       	ld	r24, Z
    20cc:	8d 7f       	andi	r24, 0xFD	; 253
    20ce:	80 83       	st	Z, r24
    20d0:	08 95       	ret

000020d2 <I2C_0_master_initialization>:
    20d2:	e0 e0       	ldi	r30, 0x00	; 0
    20d4:	f9 e0       	ldi	r31, 0x09	; 9
    20d6:	87 e6       	ldi	r24, 0x67	; 103
    20d8:	86 83       	std	Z+6, r24	; 0x06
    20da:	81 e0       	ldi	r24, 0x01	; 1
    20dc:	85 83       	std	Z+5, r24	; 0x05
    20de:	83 81       	ldd	r24, Z+3	; 0x03
    20e0:	8a 60       	ori	r24, 0x0A	; 10
    20e2:	83 83       	std	Z+3, r24	; 0x03
    20e4:	83 81       	ldd	r24, Z+3	; 0x03
    20e6:	81 60       	ori	r24, 0x01	; 1
    20e8:	83 83       	std	Z+3, r24	; 0x03
    20ea:	08 95       	ret

000020ec <I2C_0_sendAddress>:
    20ec:	cf 93       	push	r28
    20ee:	df 93       	push	r29
    20f0:	c8 2f       	mov	r28, r24
    20f2:	d6 2f       	mov	r29, r22
    20f4:	80 91 05 09 	lds	r24, 0x0905	; 0x800905 <__TEXT_REGION_LENGTH__+0x7e0905>
    20f8:	83 70       	andi	r24, 0x03	; 3
    20fa:	83 30       	cpi	r24, 0x03	; 3
    20fc:	89 f4       	brne	.+34     	; 0x2120 <I2C_0_sendAddress+0x34>
    20fe:	82 e5       	ldi	r24, 0x52	; 82
    2100:	90 e4       	ldi	r25, 0x40	; 64
    2102:	0e 94 da 0f 	call	0x1fb4	; 0x1fb4 <USART1_sendString>
    2106:	20 e6       	ldi	r18, 0x60	; 96
    2108:	3a ee       	ldi	r19, 0xEA	; 234
    210a:	01 c0       	rjmp	.+2      	; 0x210e <I2C_0_sendAddress+0x22>
    210c:	9c 01       	movw	r18, r24
    210e:	80 91 05 09 	lds	r24, 0x0905	; 0x800905 <__TEXT_REGION_LENGTH__+0x7e0905>
    2112:	83 70       	andi	r24, 0x03	; 3
    2114:	83 30       	cpi	r24, 0x03	; 3
    2116:	21 f4       	brne	.+8      	; 0x2120 <I2C_0_sendAddress+0x34>
    2118:	c9 01       	movw	r24, r18
    211a:	01 97       	sbiw	r24, 0x01	; 1
    211c:	23 2b       	or	r18, r19
    211e:	b1 f7       	brne	.-20     	; 0x210c <I2C_0_sendAddress+0x20>
    2120:	85 e0       	ldi	r24, 0x05	; 5
    2122:	80 93 05 09 	sts	0x0905, r24	; 0x800905 <__TEXT_REGION_LENGTH__+0x7e0905>
    2126:	dd 23       	and	r29, r29
    2128:	41 f0       	breq	.+16     	; 0x213a <I2C_0_sendAddress+0x4e>
    212a:	8c 2f       	mov	r24, r28
    212c:	90 e0       	ldi	r25, 0x00	; 0
    212e:	88 0f       	add	r24, r24
    2130:	99 1f       	adc	r25, r25
    2132:	81 60       	ori	r24, 0x01	; 1
    2134:	80 93 07 09 	sts	0x0907, r24	; 0x800907 <__TEXT_REGION_LENGTH__+0x7e0907>
    2138:	04 c0       	rjmp	.+8      	; 0x2142 <I2C_0_sendAddress+0x56>
    213a:	8c 2f       	mov	r24, r28
    213c:	88 0f       	add	r24, r24
    213e:	80 93 07 09 	sts	0x0907, r24	; 0x800907 <__TEXT_REGION_LENGTH__+0x7e0907>
    2142:	80 e6       	ldi	r24, 0x60	; 96
    2144:	9a ee       	ldi	r25, 0xEA	; 234
    2146:	20 91 05 09 	lds	r18, 0x0905	; 0x800905 <__TEXT_REGION_LENGTH__+0x7e0905>
    214a:	24 ff       	sbrs	r18, 4
    214c:	06 c0       	rjmp	.+12     	; 0x215a <I2C_0_sendAddress+0x6e>
    214e:	20 91 05 09 	lds	r18, 0x0905	; 0x800905 <__TEXT_REGION_LENGTH__+0x7e0905>
    2152:	26 fd       	sbrc	r18, 6
    2154:	02 c0       	rjmp	.+4      	; 0x215a <I2C_0_sendAddress+0x6e>
    2156:	01 97       	sbiw	r24, 0x01	; 1
    2158:	b1 f7       	brne	.-20     	; 0x2146 <I2C_0_sendAddress+0x5a>
    215a:	89 2b       	or	r24, r25
    215c:	21 f4       	brne	.+8      	; 0x2166 <I2C_0_sendAddress+0x7a>
    215e:	8c e5       	ldi	r24, 0x5C	; 92
    2160:	90 e4       	ldi	r25, 0x40	; 64
    2162:	0e 94 da 0f 	call	0x1fb4	; 0x1fb4 <USART1_sendString>
    2166:	80 91 05 09 	lds	r24, 0x0905	; 0x800905 <__TEXT_REGION_LENGTH__+0x7e0905>
    216a:	82 ff       	sbrs	r24, 2
    216c:	04 c0       	rjmp	.+8      	; 0x2176 <I2C_0_sendAddress+0x8a>
    216e:	84 e6       	ldi	r24, 0x64	; 100
    2170:	90 e4       	ldi	r25, 0x40	; 64
    2172:	0e 94 da 0f 	call	0x1fb4	; 0x1fb4 <USART1_sendString>
    2176:	df 91       	pop	r29
    2178:	cf 91       	pop	r28
    217a:	08 95       	ret

0000217c <ADC0_init>:
    217c:	85 e8       	ldi	r24, 0x85	; 133
    217e:	80 93 a0 00 	sts	0x00A0, r24	; 0x8000a0 <__TEXT_REGION_LENGTH__+0x7e00a0>
    2182:	e0 e0       	ldi	r30, 0x00	; 0
    2184:	f6 e0       	ldi	r31, 0x06	; 6
    2186:	81 e0       	ldi	r24, 0x01	; 1
    2188:	82 83       	std	Z+2, r24	; 0x02
    218a:	80 83       	st	Z, r24
    218c:	08 95       	ret

0000218e <ADC0_start>:
    218e:	81 e0       	ldi	r24, 0x01	; 1
    2190:	80 93 0a 06 	sts	0x060A, r24	; 0x80060a <__TEXT_REGION_LENGTH__+0x7e060a>
    2194:	08 95       	ret

00002196 <ADC0_read>:
    2196:	80 93 c6 42 	sts	0x42C6, r24	; 0x8042c6 <ADC_selected_channel>
    219a:	80 93 08 06 	sts	0x0608, r24	; 0x800608 <__TEXT_REGION_LENGTH__+0x7e0608>
    219e:	0e 94 c7 10 	call	0x218e	; 0x218e <ADC0_start>
    21a2:	80 91 0d 06 	lds	r24, 0x060D	; 0x80060d <__TEXT_REGION_LENGTH__+0x7e060d>
    21a6:	80 ff       	sbrs	r24, 0
    21a8:	fc cf       	rjmp	.-8      	; 0x21a2 <ADC0_read+0xc>
    21aa:	80 91 10 06 	lds	r24, 0x0610	; 0x800610 <__TEXT_REGION_LENGTH__+0x7e0610>
    21ae:	90 91 11 06 	lds	r25, 0x0611	; 0x800611 <__TEXT_REGION_LENGTH__+0x7e0611>
    21b2:	08 95       	ret

000021b4 <AMS_5812_init>:
    21b4:	80 e8       	ldi	r24, 0x80	; 128
    21b6:	95 e2       	ldi	r25, 0x25	; 37
    21b8:	0e 94 a8 0f 	call	0x1f50	; 0x1f50 <USART1_init>
    21bc:	0e 94 5d 10 	call	0x20ba	; 0x20ba <I2C_0_initialization>
    21c0:	0e 94 69 10 	call	0x20d2	; 0x20d2 <I2C_0_master_initialization>
    21c4:	61 e0       	ldi	r22, 0x01	; 1
    21c6:	88 e7       	ldi	r24, 0x78	; 120
    21c8:	0e 94 76 10 	call	0x20ec	; 0x20ec <I2C_0_sendAddress>
    21cc:	08 95       	ret

000021ce <AMS_raw>:
    21ce:	cf 92       	push	r12
    21d0:	df 92       	push	r13
    21d2:	ef 92       	push	r14
    21d4:	ff 92       	push	r15
    21d6:	cf 93       	push	r28
    21d8:	df 93       	push	r29
    21da:	85 e1       	ldi	r24, 0x15	; 21
    21dc:	0e 94 cb 10 	call	0x2196	; 0x2196 <ADC0_read>
    21e0:	6c 01       	movw	r12, r24
    21e2:	e1 2c       	mov	r14, r1
    21e4:	f1 2c       	mov	r15, r1
    21e6:	c0 e0       	ldi	r28, 0x00	; 0
    21e8:	d0 e0       	ldi	r29, 0x00	; 0
    21ea:	0c c0       	rjmp	.+24     	; 0x2204 <AMS_raw+0x36>
    21ec:	85 e1       	ldi	r24, 0x15	; 21
    21ee:	0e 94 cb 10 	call	0x2196	; 0x2196 <ADC0_read>
    21f2:	c8 0e       	add	r12, r24
    21f4:	d9 1e       	adc	r13, r25
    21f6:	e1 1c       	adc	r14, r1
    21f8:	f1 1c       	adc	r15, r1
    21fa:	f6 94       	lsr	r15
    21fc:	e7 94       	ror	r14
    21fe:	d7 94       	ror	r13
    2200:	c7 94       	ror	r12
    2202:	21 96       	adiw	r28, 0x01	; 1
    2204:	c2 33       	cpi	r28, 0x32	; 50
    2206:	d1 05       	cpc	r29, r1
    2208:	8c f3       	brlt	.-30     	; 0x21ec <AMS_raw+0x1e>
    220a:	c7 01       	movw	r24, r14
    220c:	b6 01       	movw	r22, r12
    220e:	0e 94 d1 2a 	call	0x55a2	; 0x55a2 <__floatunsisf>
    2212:	23 e3       	ldi	r18, 0x33	; 51
    2214:	33 e3       	ldi	r19, 0x33	; 51
    2216:	43 e5       	ldi	r20, 0x53	; 83
    2218:	50 e4       	ldi	r21, 0x40	; 64
    221a:	0e 94 88 2b 	call	0x5710	; 0x5710 <__mulsf3>
    221e:	20 e0       	ldi	r18, 0x00	; 0
    2220:	30 e0       	ldi	r19, 0x00	; 0
    2222:	40 e8       	ldi	r20, 0x80	; 128
    2224:	59 e3       	ldi	r21, 0x39	; 57
    2226:	0e 94 88 2b 	call	0x5710	; 0x5710 <__mulsf3>
    222a:	20 e0       	ldi	r18, 0x00	; 0
    222c:	30 e0       	ldi	r19, 0x00	; 0
    222e:	40 e4       	ldi	r20, 0x40	; 64
    2230:	5f e3       	ldi	r21, 0x3F	; 63
    2232:	0e 94 29 2a 	call	0x5452	; 0x5452 <__divsf3>
    2236:	20 e0       	ldi	r18, 0x00	; 0
    2238:	30 e0       	ldi	r19, 0x00	; 0
    223a:	40 e0       	ldi	r20, 0x00	; 0
    223c:	5f e3       	ldi	r21, 0x3F	; 63
    223e:	0e 94 b7 29 	call	0x536e	; 0x536e <__subsf3>
    2242:	29 e8       	ldi	r18, 0x89	; 137
    2244:	38 e8       	ldi	r19, 0x88	; 136
    2246:	48 e8       	ldi	r20, 0x88	; 136
    2248:	5e e3       	ldi	r21, 0x3E	; 62
    224a:	0e 94 29 2a 	call	0x5452	; 0x5452 <__divsf3>
    224e:	20 e0       	ldi	r18, 0x00	; 0
    2250:	30 e0       	ldi	r19, 0x00	; 0
    2252:	a9 01       	movw	r20, r18
    2254:	0e 94 b8 29 	call	0x5370	; 0x5370 <__addsf3>
    2258:	df 91       	pop	r29
    225a:	cf 91       	pop	r28
    225c:	ff 90       	pop	r15
    225e:	ef 90       	pop	r14
    2260:	df 90       	pop	r13
    2262:	cf 90       	pop	r12
    2264:	08 95       	ret

00002266 <AMS_5812_psi_read>:
    2266:	0e 94 e7 10 	call	0x21ce	; 0x21ce <AMS_raw>
    226a:	08 95       	ret

0000226c <AMS_mmhg_average>:
    226c:	cf 92       	push	r12
    226e:	df 92       	push	r13
    2270:	ef 92       	push	r14
    2272:	ff 92       	push	r15
    2274:	1f 93       	push	r17
    2276:	cf 93       	push	r28
    2278:	df 93       	push	r29
    227a:	18 2f       	mov	r17, r24
    227c:	0e 94 33 11 	call	0x2266	; 0x2266 <AMS_5812_psi_read>
    2280:	6b 01       	movw	r12, r22
    2282:	7c 01       	movw	r14, r24
    2284:	c0 e0       	ldi	r28, 0x00	; 0
    2286:	d0 e0       	ldi	r29, 0x00	; 0
    2288:	11 c0       	rjmp	.+34     	; 0x22ac <AMS_mmhg_average+0x40>
    228a:	0e 94 33 11 	call	0x2266	; 0x2266 <AMS_5812_psi_read>
    228e:	9b 01       	movw	r18, r22
    2290:	ac 01       	movw	r20, r24
    2292:	c7 01       	movw	r24, r14
    2294:	b6 01       	movw	r22, r12
    2296:	0e 94 b8 29 	call	0x5370	; 0x5370 <__addsf3>
    229a:	20 e0       	ldi	r18, 0x00	; 0
    229c:	30 e0       	ldi	r19, 0x00	; 0
    229e:	40 e0       	ldi	r20, 0x00	; 0
    22a0:	5f e3       	ldi	r21, 0x3F	; 63
    22a2:	0e 94 88 2b 	call	0x5710	; 0x5710 <__mulsf3>
    22a6:	6b 01       	movw	r12, r22
    22a8:	7c 01       	movw	r14, r24
    22aa:	21 96       	adiw	r28, 0x01	; 1
    22ac:	81 2f       	mov	r24, r17
    22ae:	90 e0       	ldi	r25, 0x00	; 0
    22b0:	01 97       	sbiw	r24, 0x01	; 1
    22b2:	c8 17       	cp	r28, r24
    22b4:	d9 07       	cpc	r29, r25
    22b6:	4c f3       	brlt	.-46     	; 0x228a <AMS_mmhg_average+0x1e>
    22b8:	2f e0       	ldi	r18, 0x0F	; 15
    22ba:	3c ed       	ldi	r19, 0xDC	; 220
    22bc:	4e e4       	ldi	r20, 0x4E	; 78
    22be:	52 e4       	ldi	r21, 0x42	; 66
    22c0:	c7 01       	movw	r24, r14
    22c2:	b6 01       	movw	r22, r12
    22c4:	0e 94 88 2b 	call	0x5710	; 0x5710 <__mulsf3>
    22c8:	df 91       	pop	r29
    22ca:	cf 91       	pop	r28
    22cc:	1f 91       	pop	r17
    22ce:	ff 90       	pop	r15
    22d0:	ef 90       	pop	r14
    22d2:	df 90       	pop	r13
    22d4:	cf 90       	pop	r12
    22d6:	08 95       	ret

000022d8 <UC1698U_gpio_init>:
    22d8:	e0 e0       	ldi	r30, 0x00	; 0
    22da:	f4 e0       	ldi	r31, 0x04	; 4
    22dc:	80 81       	ld	r24, Z
    22de:	80 68       	ori	r24, 0x80	; 128
    22e0:	80 83       	st	Z, r24
    22e2:	e0 e2       	ldi	r30, 0x20	; 32
    22e4:	f4 e0       	ldi	r31, 0x04	; 4
    22e6:	80 81       	ld	r24, Z
    22e8:	80 61       	ori	r24, 0x10	; 16
    22ea:	80 83       	st	Z, r24
    22ec:	e0 e4       	ldi	r30, 0x40	; 64
    22ee:	f4 e0       	ldi	r31, 0x04	; 4
    22f0:	80 81       	ld	r24, Z
    22f2:	80 62       	ori	r24, 0x20	; 32
    22f4:	80 83       	st	Z, r24
    22f6:	08 95       	ret

000022f8 <UC1698U_SEND_ARRAY_DATA>:
    22f8:	cf 93       	push	r28
    22fa:	df 93       	push	r29
    22fc:	e0 e2       	ldi	r30, 0x20	; 32
    22fe:	f4 e0       	ldi	r31, 0x04	; 4
    2300:	24 81       	ldd	r18, Z+4	; 0x04
    2302:	20 61       	ori	r18, 0x10	; 16
    2304:	24 83       	std	Z+4, r18	; 0x04
    2306:	c0 e0       	ldi	r28, 0x00	; 0
    2308:	d4 e0       	ldi	r29, 0x04	; 4
    230a:	2c 81       	ldd	r18, Y+4	; 0x04
    230c:	2f 77       	andi	r18, 0x7F	; 127
    230e:	2c 83       	std	Y+4, r18	; 0x04
    2310:	0e 94 47 10 	call	0x208e	; 0x208e <SPI_0_send_array>
    2314:	8c 81       	ldd	r24, Y+4	; 0x04
    2316:	80 68       	ori	r24, 0x80	; 128
    2318:	8c 83       	std	Y+4, r24	; 0x04
    231a:	df 91       	pop	r29
    231c:	cf 91       	pop	r28
    231e:	08 95       	ret

00002320 <UC1698U_SEND_BYTE_DATA>:
    2320:	cf 93       	push	r28
    2322:	df 93       	push	r29
    2324:	e0 e2       	ldi	r30, 0x20	; 32
    2326:	f4 e0       	ldi	r31, 0x04	; 4
    2328:	94 81       	ldd	r25, Z+4	; 0x04
    232a:	90 61       	ori	r25, 0x10	; 16
    232c:	94 83       	std	Z+4, r25	; 0x04
    232e:	c0 e0       	ldi	r28, 0x00	; 0
    2330:	d4 e0       	ldi	r29, 0x04	; 4
    2332:	9c 81       	ldd	r25, Y+4	; 0x04
    2334:	9f 77       	andi	r25, 0x7F	; 127
    2336:	9c 83       	std	Y+4, r25	; 0x04
    2338:	0e 94 40 10 	call	0x2080	; 0x2080 <SPI_0_send_char>
    233c:	8c 81       	ldd	r24, Y+4	; 0x04
    233e:	8f 77       	andi	r24, 0x7F	; 127
    2340:	8c 83       	std	Y+4, r24	; 0x04
    2342:	df 91       	pop	r29
    2344:	cf 91       	pop	r28
    2346:	08 95       	ret

00002348 <UC1698U_SEND_CMD>:
    2348:	0f 93       	push	r16
    234a:	1f 93       	push	r17
    234c:	cf 93       	push	r28
    234e:	df 93       	push	r29
    2350:	c0 e2       	ldi	r28, 0x20	; 32
    2352:	d4 e0       	ldi	r29, 0x04	; 4
    2354:	9c 81       	ldd	r25, Y+4	; 0x04
    2356:	9f 7e       	andi	r25, 0xEF	; 239
    2358:	9c 83       	std	Y+4, r25	; 0x04
    235a:	00 e0       	ldi	r16, 0x00	; 0
    235c:	14 e0       	ldi	r17, 0x04	; 4
    235e:	f8 01       	movw	r30, r16
    2360:	94 81       	ldd	r25, Z+4	; 0x04
    2362:	9f 77       	andi	r25, 0x7F	; 127
    2364:	94 83       	std	Z+4, r25	; 0x04
    2366:	0e 94 40 10 	call	0x2080	; 0x2080 <SPI_0_send_char>
    236a:	f8 01       	movw	r30, r16
    236c:	84 81       	ldd	r24, Z+4	; 0x04
    236e:	80 68       	ori	r24, 0x80	; 128
    2370:	84 83       	std	Z+4, r24	; 0x04
    2372:	8c 81       	ldd	r24, Y+4	; 0x04
    2374:	80 61       	ori	r24, 0x10	; 16
    2376:	8c 83       	std	Y+4, r24	; 0x04
    2378:	df 91       	pop	r29
    237a:	cf 91       	pop	r28
    237c:	1f 91       	pop	r17
    237e:	0f 91       	pop	r16
    2380:	08 95       	ret

00002382 <UC1698U_SEND_CMD_DATA>:
    2382:	0f 93       	push	r16
    2384:	1f 93       	push	r17
    2386:	cf 93       	push	r28
    2388:	df 93       	push	r29
    238a:	c0 e2       	ldi	r28, 0x20	; 32
    238c:	d4 e0       	ldi	r29, 0x04	; 4
    238e:	9c 81       	ldd	r25, Y+4	; 0x04
    2390:	9f 7e       	andi	r25, 0xEF	; 239
    2392:	9c 83       	std	Y+4, r25	; 0x04
    2394:	00 e0       	ldi	r16, 0x00	; 0
    2396:	14 e0       	ldi	r17, 0x04	; 4
    2398:	f8 01       	movw	r30, r16
    239a:	94 81       	ldd	r25, Z+4	; 0x04
    239c:	9f 77       	andi	r25, 0x7F	; 127
    239e:	94 83       	std	Z+4, r25	; 0x04
    23a0:	0e 94 40 10 	call	0x2080	; 0x2080 <SPI_0_send_char>
    23a4:	f8 01       	movw	r30, r16
    23a6:	84 81       	ldd	r24, Z+4	; 0x04
    23a8:	80 68       	ori	r24, 0x80	; 128
    23aa:	84 83       	std	Z+4, r24	; 0x04
    23ac:	8c 81       	ldd	r24, Y+4	; 0x04
    23ae:	80 61       	ori	r24, 0x10	; 16
    23b0:	8c 83       	std	Y+4, r24	; 0x04
    23b2:	df 91       	pop	r29
    23b4:	cf 91       	pop	r28
    23b6:	1f 91       	pop	r17
    23b8:	0f 91       	pop	r16
    23ba:	08 95       	ret

000023bc <set_row_addr>:
    23bc:	cf 93       	push	r28
    23be:	98 2f       	mov	r25, r24
    23c0:	9f 70       	andi	r25, 0x0F	; 15
    23c2:	c8 2f       	mov	r28, r24
    23c4:	c2 95       	swap	r28
    23c6:	cf 70       	andi	r28, 0x0F	; 15
    23c8:	c0 67       	ori	r28, 0x70	; 112
    23ca:	89 2f       	mov	r24, r25
    23cc:	80 66       	ori	r24, 0x60	; 96
    23ce:	0e 94 c1 11 	call	0x2382	; 0x2382 <UC1698U_SEND_CMD_DATA>
    23d2:	8c 2f       	mov	r24, r28
    23d4:	0e 94 c1 11 	call	0x2382	; 0x2382 <UC1698U_SEND_CMD_DATA>
    23d8:	cf 91       	pop	r28
    23da:	08 95       	ret

000023dc <set_colm_addr>:
    23dc:	cf 93       	push	r28
    23de:	c8 2f       	mov	r28, r24
    23e0:	c2 95       	swap	r28
    23e2:	cf 70       	andi	r28, 0x0F	; 15
    23e4:	c0 61       	ori	r28, 0x10	; 16
    23e6:	8f 70       	andi	r24, 0x0F	; 15
    23e8:	0e 94 c1 11 	call	0x2382	; 0x2382 <UC1698U_SEND_CMD_DATA>
    23ec:	8c 2f       	mov	r24, r28
    23ee:	0e 94 c1 11 	call	0x2382	; 0x2382 <UC1698U_SEND_CMD_DATA>
    23f2:	cf 91       	pop	r28
    23f4:	08 95       	ret

000023f6 <window_program_start_end_colm_row_addr>:
    23f6:	0f 93       	push	r16
    23f8:	1f 93       	push	r17
    23fa:	cf 93       	push	r28
    23fc:	df 93       	push	r29
    23fe:	06 2f       	mov	r16, r22
    2400:	12 2f       	mov	r17, r18
    2402:	d8 e1       	ldi	r29, 0x18	; 24
    2404:	d8 0f       	add	r29, r24
    2406:	c8 e1       	ldi	r28, 0x18	; 24
    2408:	c4 0f       	add	r28, r20
    240a:	8d 2f       	mov	r24, r29
    240c:	0e 94 ee 11 	call	0x23dc	; 0x23dc <set_colm_addr>
    2410:	80 2f       	mov	r24, r16
    2412:	0e 94 de 11 	call	0x23bc	; 0x23bc <set_row_addr>
    2416:	84 ef       	ldi	r24, 0xF4	; 244
    2418:	0e 94 a4 11 	call	0x2348	; 0x2348 <UC1698U_SEND_CMD>
    241c:	8d 2f       	mov	r24, r29
    241e:	0e 94 c1 11 	call	0x2382	; 0x2382 <UC1698U_SEND_CMD_DATA>
    2422:	86 ef       	ldi	r24, 0xF6	; 246
    2424:	0e 94 a4 11 	call	0x2348	; 0x2348 <UC1698U_SEND_CMD>
    2428:	8c 2f       	mov	r24, r28
    242a:	0e 94 c1 11 	call	0x2382	; 0x2382 <UC1698U_SEND_CMD_DATA>
    242e:	87 ef       	ldi	r24, 0xF7	; 247
    2430:	0e 94 a4 11 	call	0x2348	; 0x2348 <UC1698U_SEND_CMD>
    2434:	81 2f       	mov	r24, r17
    2436:	0e 94 c1 11 	call	0x2382	; 0x2382 <UC1698U_SEND_CMD_DATA>
    243a:	88 ef       	ldi	r24, 0xF8	; 248
    243c:	0e 94 a4 11 	call	0x2348	; 0x2348 <UC1698U_SEND_CMD>
    2440:	df 91       	pop	r29
    2442:	cf 91       	pop	r28
    2444:	1f 91       	pop	r17
    2446:	0f 91       	pop	r16
    2448:	08 95       	ret

0000244a <set_all_pixel_off>:
    244a:	cf 93       	push	r28
    244c:	df 93       	push	r29
    244e:	2f e9       	ldi	r18, 0x9F	; 159
    2450:	4f e4       	ldi	r20, 0x4F	; 79
    2452:	60 e0       	ldi	r22, 0x00	; 0
    2454:	80 e0       	ldi	r24, 0x00	; 0
    2456:	0e 94 fb 11 	call	0x23f6	; 0x23f6 <window_program_start_end_colm_row_addr>
    245a:	c0 e0       	ldi	r28, 0x00	; 0
    245c:	d0 e0       	ldi	r29, 0x00	; 0
    245e:	04 c0       	rjmp	.+8      	; 0x2468 <set_all_pixel_off+0x1e>
    2460:	80 e0       	ldi	r24, 0x00	; 0
    2462:	0e 94 90 11 	call	0x2320	; 0x2320 <UC1698U_SEND_BYTE_DATA>
    2466:	21 96       	adiw	r28, 0x01	; 1
    2468:	c1 15       	cp	r28, r1
    246a:	84 e6       	ldi	r24, 0x64	; 100
    246c:	d8 07       	cpc	r29, r24
    246e:	c4 f3       	brlt	.-16     	; 0x2460 <set_all_pixel_off+0x16>
    2470:	df 91       	pop	r29
    2472:	cf 91       	pop	r28
    2474:	08 95       	ret

00002476 <UC1698U_init>:
    2476:	e0 e0       	ldi	r30, 0x00	; 0
    2478:	f4 e0       	ldi	r31, 0x04	; 4
    247a:	84 81       	ldd	r24, Z+4	; 0x04
    247c:	8f 77       	andi	r24, 0x7F	; 127
    247e:	84 83       	std	Z+4, r24	; 0x04
    2480:	e0 e2       	ldi	r30, 0x20	; 32
    2482:	f4 e0       	ldi	r31, 0x04	; 4
    2484:	84 81       	ldd	r24, Z+4	; 0x04
    2486:	80 61       	ori	r24, 0x10	; 16
    2488:	84 83       	std	Z+4, r24	; 0x04
    248a:	e0 e4       	ldi	r30, 0x40	; 64
    248c:	f4 e0       	ldi	r31, 0x04	; 4
    248e:	84 81       	ldd	r24, Z+4	; 0x04
    2490:	8f 7d       	andi	r24, 0xDF	; 223
    2492:	84 83       	std	Z+4, r24	; 0x04
    2494:	2f ef       	ldi	r18, 0xFF	; 255
    2496:	88 ef       	ldi	r24, 0xF8	; 248
    2498:	95 e1       	ldi	r25, 0x15	; 21
    249a:	21 50       	subi	r18, 0x01	; 1
    249c:	80 40       	sbci	r24, 0x00	; 0
    249e:	90 40       	sbci	r25, 0x00	; 0
    24a0:	e1 f7       	brne	.-8      	; 0x249a <UC1698U_init+0x24>
    24a2:	00 c0       	rjmp	.+0      	; 0x24a4 <UC1698U_init+0x2e>
    24a4:	00 00       	nop
    24a6:	84 81       	ldd	r24, Z+4	; 0x04
    24a8:	80 62       	ori	r24, 0x20	; 32
    24aa:	84 83       	std	Z+4, r24	; 0x04
    24ac:	2f ef       	ldi	r18, 0xFF	; 255
    24ae:	8e e9       	ldi	r24, 0x9E	; 158
    24b0:	94 e2       	ldi	r25, 0x24	; 36
    24b2:	21 50       	subi	r18, 0x01	; 1
    24b4:	80 40       	sbci	r24, 0x00	; 0
    24b6:	90 40       	sbci	r25, 0x00	; 0
    24b8:	e1 f7       	brne	.-8      	; 0x24b2 <UC1698U_init+0x3c>
    24ba:	00 c0       	rjmp	.+0      	; 0x24bc <UC1698U_init+0x46>
    24bc:	00 00       	nop
    24be:	88 eb       	ldi	r24, 0xB8	; 184
    24c0:	0e 94 a4 11 	call	0x2348	; 0x2348 <UC1698U_SEND_CMD>
    24c4:	80 e1       	ldi	r24, 0x10	; 16
    24c6:	0e 94 c1 11 	call	0x2382	; 0x2382 <UC1698U_SEND_CMD_DATA>
    24ca:	82 ee       	ldi	r24, 0xE2	; 226
    24cc:	0e 94 a4 11 	call	0x2348	; 0x2348 <UC1698U_SEND_CMD>
    24d0:	2f ef       	ldi	r18, 0xFF	; 255
    24d2:	85 ea       	ldi	r24, 0xA5	; 165
    24d4:	9e e0       	ldi	r25, 0x0E	; 14
    24d6:	21 50       	subi	r18, 0x01	; 1
    24d8:	80 40       	sbci	r24, 0x00	; 0
    24da:	90 40       	sbci	r25, 0x00	; 0
    24dc:	e1 f7       	brne	.-8      	; 0x24d6 <UC1698U_init+0x60>
    24de:	00 c0       	rjmp	.+0      	; 0x24e0 <UC1698U_init+0x6a>
    24e0:	00 00       	nop
    24e2:	8b ee       	ldi	r24, 0xEB	; 235
    24e4:	0e 94 a4 11 	call	0x2348	; 0x2348 <UC1698U_SEND_CMD>
    24e8:	81 e8       	ldi	r24, 0x81	; 129
    24ea:	0e 94 a4 11 	call	0x2348	; 0x2348 <UC1698U_SEND_CMD>
    24ee:	8b e4       	ldi	r24, 0x4B	; 75
    24f0:	0e 94 a4 11 	call	0x2348	; 0x2348 <UC1698U_SEND_CMD>
    24f4:	8b e2       	ldi	r24, 0x2B	; 43
    24f6:	0e 94 a4 11 	call	0x2348	; 0x2348 <UC1698U_SEND_CMD>
    24fa:	84 ec       	ldi	r24, 0xC4	; 196
    24fc:	0e 94 a4 11 	call	0x2348	; 0x2348 <UC1698U_SEND_CMD>
    2500:	89 e8       	ldi	r24, 0x89	; 137
    2502:	0e 94 a4 11 	call	0x2348	; 0x2348 <UC1698U_SEND_CMD>
    2506:	84 e2       	ldi	r24, 0x24	; 36
    2508:	0e 94 a4 11 	call	0x2348	; 0x2348 <UC1698U_SEND_CMD>
    250c:	82 ea       	ldi	r24, 0xA2	; 162
    250e:	0e 94 a4 11 	call	0x2348	; 0x2348 <UC1698U_SEND_CMD>
    2512:	81 ef       	ldi	r24, 0xF1	; 241
    2514:	0e 94 a4 11 	call	0x2348	; 0x2348 <UC1698U_SEND_CMD>
    2518:	8f e9       	ldi	r24, 0x9F	; 159
    251a:	0e 94 c1 11 	call	0x2382	; 0x2382 <UC1698U_SEND_CMD_DATA>
    251e:	84 e8       	ldi	r24, 0x84	; 132
    2520:	0e 94 a4 11 	call	0x2348	; 0x2348 <UC1698U_SEND_CMD>
    2524:	82 ef       	ldi	r24, 0xF2	; 242
    2526:	0e 94 a4 11 	call	0x2348	; 0x2348 <UC1698U_SEND_CMD>
    252a:	80 e0       	ldi	r24, 0x00	; 0
    252c:	0e 94 c1 11 	call	0x2382	; 0x2382 <UC1698U_SEND_CMD_DATA>
    2530:	83 ef       	ldi	r24, 0xF3	; 243
    2532:	0e 94 a4 11 	call	0x2348	; 0x2348 <UC1698U_SEND_CMD>
    2536:	82 e3       	ldi	r24, 0x32	; 50
    2538:	0e 94 c1 11 	call	0x2382	; 0x2382 <UC1698U_SEND_CMD_DATA>
    253c:	80 e4       	ldi	r24, 0x40	; 64
    253e:	0e 94 a4 11 	call	0x2348	; 0x2348 <UC1698U_SEND_CMD>
    2542:	80 e5       	ldi	r24, 0x50	; 80
    2544:	0e 94 a4 11 	call	0x2348	; 0x2348 <UC1698U_SEND_CMD>
    2548:	81 ed       	ldi	r24, 0xD1	; 209
    254a:	0e 94 a4 11 	call	0x2348	; 0x2348 <UC1698U_SEND_CMD>
    254e:	86 ed       	ldi	r24, 0xD6	; 214
    2550:	0e 94 a4 11 	call	0x2348	; 0x2348 <UC1698U_SEND_CMD>
    2554:	88 ec       	ldi	r24, 0xC8	; 200
    2556:	0e 94 a4 11 	call	0x2348	; 0x2348 <UC1698U_SEND_CMD>
    255a:	85 e0       	ldi	r24, 0x05	; 5
    255c:	0e 94 a4 11 	call	0x2348	; 0x2348 <UC1698U_SEND_CMD>
    2560:	88 ed       	ldi	r24, 0xD8	; 216
    2562:	0e 94 a4 11 	call	0x2348	; 0x2348 <UC1698U_SEND_CMD>
    2566:	0e 94 25 12 	call	0x244a	; 0x244a <set_all_pixel_off>
    256a:	8d ea       	ldi	r24, 0xAD	; 173
    256c:	0e 94 a4 11 	call	0x2348	; 0x2348 <UC1698U_SEND_CMD>
    2570:	08 95       	ret

00002572 <print_icon>:
    2572:	2f 92       	push	r2
    2574:	3f 92       	push	r3
    2576:	4f 92       	push	r4
    2578:	5f 92       	push	r5
    257a:	6f 92       	push	r6
    257c:	7f 92       	push	r7
    257e:	8f 92       	push	r8
    2580:	9f 92       	push	r9
    2582:	af 92       	push	r10
    2584:	bf 92       	push	r11
    2586:	cf 92       	push	r12
    2588:	df 92       	push	r13
    258a:	ef 92       	push	r14
    258c:	ff 92       	push	r15
    258e:	0f 93       	push	r16
    2590:	1f 93       	push	r17
    2592:	cf 93       	push	r28
    2594:	df 93       	push	r29
    2596:	cd b7       	in	r28, 0x3d	; 61
    2598:	de b7       	in	r29, 0x3e	; 62
    259a:	61 97       	sbiw	r28, 0x11	; 17
    259c:	cd bf       	out	0x3d, r28	; 61
    259e:	de bf       	out	0x3e, r29	; 62
    25a0:	8f 83       	std	Y+7, r24	; 0x07
    25a2:	6c 87       	std	Y+12, r22	; 0x0c
    25a4:	1a 01       	movw	r2, r20
    25a6:	2b 87       	std	Y+11, r18	; 0x0b
    25a8:	90 2e       	mov	r9, r16
    25aa:	2d b7       	in	r18, 0x3d	; 61
    25ac:	3e b7       	in	r19, 0x3e	; 62
    25ae:	2e 87       	std	Y+14, r18	; 0x0e
    25b0:	3f 87       	std	Y+15, r19	; 0x0f
    25b2:	8b ea       	ldi	r24, 0xAB	; 171
    25b4:	08 9f       	mul	r16, r24
    25b6:	81 2d       	mov	r24, r1
    25b8:	11 24       	eor	r1, r1
    25ba:	86 95       	lsr	r24
    25bc:	8a 87       	std	Y+10, r24	; 0x0a
    25be:	90 e0       	ldi	r25, 0x00	; 0
    25c0:	dc 01       	movw	r26, r24
    25c2:	aa 0f       	add	r26, r26
    25c4:	bb 1f       	adc	r27, r27
    25c6:	ad 83       	std	Y+5, r26	; 0x05
    25c8:	be 83       	std	Y+6, r27	; 0x06
    25ca:	6d 01       	movw	r12, r26
    25cc:	bb 0f       	add	r27, r27
    25ce:	ee 08       	sbc	r14, r14
    25d0:	ff 08       	sbc	r15, r15
    25d2:	00 e0       	ldi	r16, 0x00	; 0
    25d4:	10 e0       	ldi	r17, 0x00	; 0
    25d6:	41 2c       	mov	r4, r1
    25d8:	51 2c       	mov	r5, r1
    25da:	32 01       	movw	r6, r4
    25dc:	09 83       	std	Y+1, r16	; 0x01
    25de:	1a 83       	std	Y+2, r17	; 0x02
    25e0:	9d 86       	std	Y+13, r9	; 0x0d
    25e2:	46 01       	movw	r8, r12
    25e4:	57 01       	movw	r10, r14
    25e6:	89 c0       	rjmp	.+274    	; 0x26fa <print_icon+0x188>
    25e8:	ed b7       	in	r30, 0x3d	; 61
    25ea:	fe b7       	in	r31, 0x3e	; 62
    25ec:	e8 87       	std	Y+8, r30	; 0x08
    25ee:	f9 87       	std	Y+9, r31	; 0x09
    25f0:	2d b7       	in	r18, 0x3d	; 61
    25f2:	3e b7       	in	r19, 0x3e	; 62
    25f4:	8d 81       	ldd	r24, Y+5	; 0x05
    25f6:	9e 81       	ldd	r25, Y+6	; 0x06
    25f8:	28 1b       	sub	r18, r24
    25fa:	39 0b       	sbc	r19, r25
    25fc:	2d bf       	out	0x3d, r18	; 61
    25fe:	3e bf       	out	0x3e, r19	; 62
    2600:	ad b7       	in	r26, 0x3d	; 61
    2602:	be b7       	in	r27, 0x3e	; 62
    2604:	11 96       	adiw	r26, 0x01	; 1
    2606:	ab 83       	std	Y+3, r26	; 0x03
    2608:	bc 83       	std	Y+4, r27	; 0x04
    260a:	ad 01       	movw	r20, r26
    260c:	80 e0       	ldi	r24, 0x00	; 0
    260e:	90 e0       	ldi	r25, 0x00	; 0
    2610:	05 c0       	rjmp	.+10     	; 0x261c <print_icon+0xaa>
    2612:	fa 01       	movw	r30, r20
    2614:	e8 0f       	add	r30, r24
    2616:	f9 1f       	adc	r31, r25
    2618:	10 82       	st	Z, r1
    261a:	01 96       	adiw	r24, 0x01	; 1
    261c:	8c 01       	movw	r16, r24
    261e:	09 2e       	mov	r0, r25
    2620:	00 0c       	add	r0, r0
    2622:	22 0b       	sbc	r18, r18
    2624:	33 0b       	sbc	r19, r19
    2626:	08 15       	cp	r16, r8
    2628:	19 05       	cpc	r17, r9
    262a:	2a 05       	cpc	r18, r10
    262c:	3b 05       	cpc	r19, r11
    262e:	8c f3       	brlt	.-30     	; 0x2612 <print_icon+0xa0>
    2630:	60 e0       	ldi	r22, 0x00	; 0
    2632:	70 e0       	ldi	r23, 0x00	; 0
    2634:	30 e0       	ldi	r19, 0x00	; 0
    2636:	20 e0       	ldi	r18, 0x00	; 0
    2638:	ed 84       	ldd	r14, Y+13	; 0x0d
    263a:	3d c0       	rjmp	.+122    	; 0x26b6 <print_icon+0x144>
    263c:	f1 01       	movw	r30, r2
    263e:	e4 0d       	add	r30, r4
    2640:	f5 1d       	adc	r31, r5
    2642:	f4 90       	lpm	r15, Z
    2644:	bf ef       	ldi	r27, 0xFF	; 255
    2646:	4b 1a       	sub	r4, r27
    2648:	5b 0a       	sbc	r5, r27
    264a:	6b 0a       	sbc	r6, r27
    264c:	7b 0a       	sbc	r7, r27
    264e:	87 e0       	ldi	r24, 0x07	; 7
    2650:	90 e0       	ldi	r25, 0x00	; 0
    2652:	2d c0       	rjmp	.+90     	; 0x26ae <print_icon+0x13c>
    2654:	ef 2d       	mov	r30, r15
    2656:	f0 e0       	ldi	r31, 0x00	; 0
    2658:	08 2e       	mov	r0, r24
    265a:	02 c0       	rjmp	.+4      	; 0x2660 <print_icon+0xee>
    265c:	f5 95       	asr	r31
    265e:	e7 95       	ror	r30
    2660:	0a 94       	dec	r0
    2662:	e2 f7       	brpl	.-8      	; 0x265c <print_icon+0xea>
    2664:	e0 ff       	sbrs	r30, 0
    2666:	1d c0       	rjmp	.+58     	; 0x26a2 <print_icon+0x130>
    2668:	e3 2f       	mov	r30, r19
    266a:	f0 e0       	ldi	r31, 0x00	; 0
    266c:	e8 8b       	std	Y+16, r30	; 0x10
    266e:	f9 8b       	std	Y+17, r31	; 0x11
    2670:	8f 01       	movw	r16, r30
    2672:	04 0f       	add	r16, r20
    2674:	15 1f       	adc	r17, r21
    2676:	d8 01       	movw	r26, r16
    2678:	cc 90       	ld	r12, X
    267a:	a2 2f       	mov	r26, r18
    267c:	b0 e0       	ldi	r27, 0x00	; 0
    267e:	aa 0f       	add	r26, r26
    2680:	bb 1f       	adc	r27, r27
    2682:	a9 5e       	subi	r26, 0xE9	; 233
    2684:	bf 4b       	sbci	r27, 0xBF	; 191
    2686:	dc 90       	ld	r13, X
    2688:	dc 28       	or	r13, r12
    268a:	f8 01       	movw	r30, r16
    268c:	d0 82       	st	Z, r13
    268e:	e8 89       	ldd	r30, Y+16	; 0x10
    2690:	f9 89       	ldd	r31, Y+17	; 0x11
    2692:	31 96       	adiw	r30, 0x01	; 1
    2694:	e4 0f       	add	r30, r20
    2696:	f5 1f       	adc	r31, r21
    2698:	10 81       	ld	r17, Z
    269a:	11 96       	adiw	r26, 0x01	; 1
    269c:	ac 91       	ld	r26, X
    269e:	a1 2b       	or	r26, r17
    26a0:	a0 83       	st	Z, r26
    26a2:	2f 5f       	subi	r18, 0xFF	; 255
    26a4:	23 30       	cpi	r18, 0x03	; 3
    26a6:	10 f0       	brcs	.+4      	; 0x26ac <print_icon+0x13a>
    26a8:	3e 5f       	subi	r19, 0xFE	; 254
    26aa:	20 e0       	ldi	r18, 0x00	; 0
    26ac:	01 97       	sbiw	r24, 0x01	; 1
    26ae:	99 23       	and	r25, r25
    26b0:	8c f6       	brge	.-94     	; 0x2654 <print_icon+0xe2>
    26b2:	6f 5f       	subi	r22, 0xFF	; 255
    26b4:	7f 4f       	sbci	r23, 0xFF	; 255
    26b6:	8e 2d       	mov	r24, r14
    26b8:	86 95       	lsr	r24
    26ba:	86 95       	lsr	r24
    26bc:	86 95       	lsr	r24
    26be:	90 e0       	ldi	r25, 0x00	; 0
    26c0:	68 17       	cp	r22, r24
    26c2:	79 07       	cpc	r23, r25
    26c4:	0c f4       	brge	.+2      	; 0x26c8 <print_icon+0x156>
    26c6:	ba cf       	rjmp	.-140    	; 0x263c <print_icon+0xca>
    26c8:	6c 85       	ldd	r22, Y+12	; 0x0c
    26ca:	f9 81       	ldd	r31, Y+1	; 0x01
    26cc:	6f 0f       	add	r22, r31
    26ce:	26 2f       	mov	r18, r22
    26d0:	4a 85       	ldd	r20, Y+10	; 0x0a
    26d2:	3f 81       	ldd	r19, Y+7	; 0x07
    26d4:	43 0f       	add	r20, r19
    26d6:	83 2f       	mov	r24, r19
    26d8:	0e 94 fb 11 	call	0x23f6	; 0x23f6 <window_program_start_end_colm_row_addr>
    26dc:	6d 81       	ldd	r22, Y+5	; 0x05
    26de:	7e 81       	ldd	r23, Y+6	; 0x06
    26e0:	8b 81       	ldd	r24, Y+3	; 0x03
    26e2:	9c 81       	ldd	r25, Y+4	; 0x04
    26e4:	0e 94 7c 11 	call	0x22f8	; 0x22f8 <UC1698U_SEND_ARRAY_DATA>
    26e8:	88 85       	ldd	r24, Y+8	; 0x08
    26ea:	99 85       	ldd	r25, Y+9	; 0x09
    26ec:	8d bf       	out	0x3d, r24	; 61
    26ee:	9e bf       	out	0x3e, r25	; 62
    26f0:	a9 81       	ldd	r26, Y+1	; 0x01
    26f2:	ba 81       	ldd	r27, Y+2	; 0x02
    26f4:	11 96       	adiw	r26, 0x01	; 1
    26f6:	a9 83       	std	Y+1, r26	; 0x01
    26f8:	ba 83       	std	Y+2, r27	; 0x02
    26fa:	bb 85       	ldd	r27, Y+11	; 0x0b
    26fc:	8b 2f       	mov	r24, r27
    26fe:	90 e0       	ldi	r25, 0x00	; 0
    2700:	e9 81       	ldd	r30, Y+1	; 0x01
    2702:	fa 81       	ldd	r31, Y+2	; 0x02
    2704:	e8 17       	cp	r30, r24
    2706:	f9 07       	cpc	r31, r25
    2708:	0c f4       	brge	.+2      	; 0x270c <print_icon+0x19a>
    270a:	6e cf       	rjmp	.-292    	; 0x25e8 <print_icon+0x76>
    270c:	2e 85       	ldd	r18, Y+14	; 0x0e
    270e:	3f 85       	ldd	r19, Y+15	; 0x0f
    2710:	2d bf       	out	0x3d, r18	; 61
    2712:	3e bf       	out	0x3e, r19	; 62
    2714:	61 96       	adiw	r28, 0x11	; 17
    2716:	cd bf       	out	0x3d, r28	; 61
    2718:	de bf       	out	0x3e, r29	; 62
    271a:	df 91       	pop	r29
    271c:	cf 91       	pop	r28
    271e:	1f 91       	pop	r17
    2720:	0f 91       	pop	r16
    2722:	ff 90       	pop	r15
    2724:	ef 90       	pop	r14
    2726:	df 90       	pop	r13
    2728:	cf 90       	pop	r12
    272a:	bf 90       	pop	r11
    272c:	af 90       	pop	r10
    272e:	9f 90       	pop	r9
    2730:	8f 90       	pop	r8
    2732:	7f 90       	pop	r7
    2734:	6f 90       	pop	r6
    2736:	5f 90       	pop	r5
    2738:	4f 90       	pop	r4
    273a:	3f 90       	pop	r3
    273c:	2f 90       	pop	r2
    273e:	08 95       	ret

00002740 <print_number>:
    2740:	2f 92       	push	r2
    2742:	3f 92       	push	r3
    2744:	4f 92       	push	r4
    2746:	5f 92       	push	r5
    2748:	6f 92       	push	r6
    274a:	7f 92       	push	r7
    274c:	8f 92       	push	r8
    274e:	9f 92       	push	r9
    2750:	af 92       	push	r10
    2752:	bf 92       	push	r11
    2754:	cf 92       	push	r12
    2756:	df 92       	push	r13
    2758:	ef 92       	push	r14
    275a:	ff 92       	push	r15
    275c:	0f 93       	push	r16
    275e:	1f 93       	push	r17
    2760:	cf 93       	push	r28
    2762:	df 93       	push	r29
    2764:	cd b7       	in	r28, 0x3d	; 61
    2766:	de b7       	in	r29, 0x3e	; 62
    2768:	62 97       	sbiw	r28, 0x12	; 18
    276a:	cd bf       	out	0x3d, r28	; 61
    276c:	de bf       	out	0x3e, r29	; 62
    276e:	a8 2e       	mov	r10, r24
    2770:	68 8b       	std	Y+16, r22	; 0x10
    2772:	4a 01       	movw	r8, r20
    2774:	32 2e       	mov	r3, r18
    2776:	2d b7       	in	r18, 0x3d	; 61
    2778:	3e b7       	in	r19, 0x3e	; 62
    277a:	29 8b       	std	Y+17, r18	; 0x11
    277c:	3a 8b       	std	Y+18, r19	; 0x12
    277e:	20 2e       	mov	r2, r16
    2780:	26 94       	lsr	r2
    2782:	26 94       	lsr	r2
    2784:	26 94       	lsr	r2
    2786:	22 2d       	mov	r18, r2
    2788:	30 e0       	ldi	r19, 0x00	; 0
    278a:	a3 2d       	mov	r26, r3
    278c:	b0 e0       	ldi	r27, 0x00	; 0
    278e:	0e 94 4a 2c 	call	0x5894	; 0x5894 <__umulhisi3>
    2792:	9b 01       	movw	r18, r22
    2794:	ac 01       	movw	r20, r24
    2796:	ae 2d       	mov	r26, r14
    2798:	b0 e0       	ldi	r27, 0x00	; 0
    279a:	0e 94 59 2c 	call	0x58b2	; 0x58b2 <__muluhisi3>
    279e:	2b 01       	movw	r4, r22
    27a0:	3c 01       	movw	r6, r24
    27a2:	8b ea       	ldi	r24, 0xAB	; 171
    27a4:	08 9f       	mul	r16, r24
    27a6:	01 2d       	mov	r16, r1
    27a8:	11 24       	eor	r1, r1
    27aa:	06 95       	lsr	r16
    27ac:	0d 87       	std	Y+13, r16	; 0x0d
    27ae:	80 2f       	mov	r24, r16
    27b0:	90 e0       	ldi	r25, 0x00	; 0
    27b2:	dc 01       	movw	r26, r24
    27b4:	aa 0f       	add	r26, r26
    27b6:	bb 1f       	adc	r27, r27
    27b8:	ae 87       	std	Y+14, r26	; 0x0e
    27ba:	bf 87       	std	Y+15, r27	; 0x0f
    27bc:	cd 01       	movw	r24, r26
    27be:	09 2e       	mov	r0, r25
    27c0:	00 0c       	add	r0, r0
    27c2:	aa 0b       	sbc	r26, r26
    27c4:	bb 0b       	sbc	r27, r27
    27c6:	8f 83       	std	Y+7, r24	; 0x07
    27c8:	98 87       	std	Y+8, r25	; 0x08
    27ca:	a9 87       	std	Y+9, r26	; 0x09
    27cc:	ba 87       	std	Y+10, r27	; 0x0a
    27ce:	00 e0       	ldi	r16, 0x00	; 0
    27d0:	10 e0       	ldi	r17, 0x00	; 0
    27d2:	8f c0       	rjmp	.+286    	; 0x28f2 <print_number+0x1b2>
    27d4:	ad b7       	in	r26, 0x3d	; 61
    27d6:	be b7       	in	r27, 0x3e	; 62
    27d8:	ab 87       	std	Y+11, r26	; 0x0b
    27da:	bc 87       	std	Y+12, r27	; 0x0c
    27dc:	ed b7       	in	r30, 0x3d	; 61
    27de:	fe b7       	in	r31, 0x3e	; 62
    27e0:	2f 81       	ldd	r18, Y+7	; 0x07
    27e2:	38 85       	ldd	r19, Y+8	; 0x08
    27e4:	e2 1b       	sub	r30, r18
    27e6:	f3 0b       	sbc	r31, r19
    27e8:	ed bf       	out	0x3d, r30	; 61
    27ea:	fe bf       	out	0x3e, r31	; 62
    27ec:	8d b7       	in	r24, 0x3d	; 61
    27ee:	9e b7       	in	r25, 0x3e	; 62
    27f0:	01 96       	adiw	r24, 0x01	; 1
    27f2:	8d 83       	std	Y+5, r24	; 0x05
    27f4:	9e 83       	std	Y+6, r25	; 0x06
    27f6:	ac 01       	movw	r20, r24
    27f8:	80 e0       	ldi	r24, 0x00	; 0
    27fa:	90 e0       	ldi	r25, 0x00	; 0
    27fc:	49 82       	std	Y+1, r4	; 0x01
    27fe:	5a 82       	std	Y+2, r5	; 0x02
    2800:	6b 82       	std	Y+3, r6	; 0x03
    2802:	7c 82       	std	Y+4, r7	; 0x04
    2804:	32 2d       	mov	r19, r2
    2806:	23 2d       	mov	r18, r3
    2808:	2f 80       	ldd	r2, Y+7	; 0x07
    280a:	38 84       	ldd	r3, Y+8	; 0x08
    280c:	49 84       	ldd	r4, Y+9	; 0x09
    280e:	5a 84       	ldd	r5, Y+10	; 0x0a
    2810:	05 c0       	rjmp	.+10     	; 0x281c <print_number+0xdc>
    2812:	fa 01       	movw	r30, r20
    2814:	e8 0f       	add	r30, r24
    2816:	f9 1f       	adc	r31, r25
    2818:	10 82       	st	Z, r1
    281a:	01 96       	adiw	r24, 0x01	; 1
    281c:	6c 01       	movw	r12, r24
    281e:	09 2e       	mov	r0, r25
    2820:	00 0c       	add	r0, r0
    2822:	ee 08       	sbc	r14, r14
    2824:	ff 08       	sbc	r15, r15
    2826:	c2 14       	cp	r12, r2
    2828:	d3 04       	cpc	r13, r3
    282a:	e4 04       	cpc	r14, r4
    282c:	f5 04       	cpc	r15, r5
    282e:	88 f3       	brcs	.-30     	; 0x2812 <print_number+0xd2>
    2830:	49 80       	ldd	r4, Y+1	; 0x01
    2832:	5a 80       	ldd	r5, Y+2	; 0x02
    2834:	6b 80       	ldd	r6, Y+3	; 0x03
    2836:	7c 80       	ldd	r7, Y+4	; 0x04
    2838:	23 2e       	mov	r2, r19
    283a:	32 2e       	mov	r3, r18
    283c:	60 e0       	ldi	r22, 0x00	; 0
    283e:	70 e0       	ldi	r23, 0x00	; 0
    2840:	30 e0       	ldi	r19, 0x00	; 0
    2842:	20 e0       	ldi	r18, 0x00	; 0
    2844:	3c c0       	rjmp	.+120    	; 0x28be <print_number+0x17e>
    2846:	f4 01       	movw	r30, r8
    2848:	e4 0d       	add	r30, r4
    284a:	f5 1d       	adc	r31, r5
    284c:	d4 90       	lpm	r13, Z
    284e:	9f ef       	ldi	r25, 0xFF	; 255
    2850:	49 1a       	sub	r4, r25
    2852:	59 0a       	sbc	r5, r25
    2854:	69 0a       	sbc	r6, r25
    2856:	79 0a       	sbc	r7, r25
    2858:	87 e0       	ldi	r24, 0x07	; 7
    285a:	90 e0       	ldi	r25, 0x00	; 0
    285c:	2c c0       	rjmp	.+88     	; 0x28b6 <print_number+0x176>
    285e:	ed 2d       	mov	r30, r13
    2860:	f0 e0       	ldi	r31, 0x00	; 0
    2862:	08 2e       	mov	r0, r24
    2864:	02 c0       	rjmp	.+4      	; 0x286a <print_number+0x12a>
    2866:	f5 95       	asr	r31
    2868:	e7 95       	ror	r30
    286a:	0a 94       	dec	r0
    286c:	e2 f7       	brpl	.-8      	; 0x2866 <print_number+0x126>
    286e:	e0 ff       	sbrs	r30, 0
    2870:	1c c0       	rjmp	.+56     	; 0x28aa <print_number+0x16a>
    2872:	a3 2f       	mov	r26, r19
    2874:	b0 e0       	ldi	r27, 0x00	; 0
    2876:	a9 83       	std	Y+1, r26	; 0x01
    2878:	ba 83       	std	Y+2, r27	; 0x02
    287a:	7d 01       	movw	r14, r26
    287c:	e4 0e       	add	r14, r20
    287e:	f5 1e       	adc	r15, r21
    2880:	f7 01       	movw	r30, r14
    2882:	b0 80       	ld	r11, Z
    2884:	a2 2f       	mov	r26, r18
    2886:	b0 e0       	ldi	r27, 0x00	; 0
    2888:	aa 0f       	add	r26, r26
    288a:	bb 1f       	adc	r27, r27
    288c:	a9 5e       	subi	r26, 0xE9	; 233
    288e:	bf 4b       	sbci	r27, 0xBF	; 191
    2890:	cc 90       	ld	r12, X
    2892:	cb 28       	or	r12, r11
    2894:	c0 82       	st	Z, r12
    2896:	e9 81       	ldd	r30, Y+1	; 0x01
    2898:	fa 81       	ldd	r31, Y+2	; 0x02
    289a:	31 96       	adiw	r30, 0x01	; 1
    289c:	e4 0f       	add	r30, r20
    289e:	f5 1f       	adc	r31, r21
    28a0:	f0 80       	ld	r15, Z
    28a2:	11 96       	adiw	r26, 0x01	; 1
    28a4:	ac 91       	ld	r26, X
    28a6:	af 29       	or	r26, r15
    28a8:	a0 83       	st	Z, r26
    28aa:	2f 5f       	subi	r18, 0xFF	; 255
    28ac:	23 30       	cpi	r18, 0x03	; 3
    28ae:	10 f0       	brcs	.+4      	; 0x28b4 <print_number+0x174>
    28b0:	3e 5f       	subi	r19, 0xFE	; 254
    28b2:	20 e0       	ldi	r18, 0x00	; 0
    28b4:	01 97       	sbiw	r24, 0x01	; 1
    28b6:	99 23       	and	r25, r25
    28b8:	94 f6       	brge	.-92     	; 0x285e <print_number+0x11e>
    28ba:	6f 5f       	subi	r22, 0xFF	; 255
    28bc:	7f 4f       	sbci	r23, 0xFF	; 255
    28be:	82 2d       	mov	r24, r2
    28c0:	90 e0       	ldi	r25, 0x00	; 0
    28c2:	68 17       	cp	r22, r24
    28c4:	79 07       	cpc	r23, r25
    28c6:	0c f4       	brge	.+2      	; 0x28ca <print_number+0x18a>
    28c8:	be cf       	rjmp	.-132    	; 0x2846 <print_number+0x106>
    28ca:	68 89       	ldd	r22, Y+16	; 0x10
    28cc:	60 0f       	add	r22, r16
    28ce:	26 2f       	mov	r18, r22
    28d0:	4d 85       	ldd	r20, Y+13	; 0x0d
    28d2:	4a 0d       	add	r20, r10
    28d4:	8a 2d       	mov	r24, r10
    28d6:	0e 94 fb 11 	call	0x23f6	; 0x23f6 <window_program_start_end_colm_row_addr>
    28da:	6e 85       	ldd	r22, Y+14	; 0x0e
    28dc:	7f 85       	ldd	r23, Y+15	; 0x0f
    28de:	8d 81       	ldd	r24, Y+5	; 0x05
    28e0:	9e 81       	ldd	r25, Y+6	; 0x06
    28e2:	0e 94 7c 11 	call	0x22f8	; 0x22f8 <UC1698U_SEND_ARRAY_DATA>
    28e6:	2b 85       	ldd	r18, Y+11	; 0x0b
    28e8:	3c 85       	ldd	r19, Y+12	; 0x0c
    28ea:	2d bf       	out	0x3d, r18	; 61
    28ec:	3e bf       	out	0x3e, r19	; 62
    28ee:	0f 5f       	subi	r16, 0xFF	; 255
    28f0:	1f 4f       	sbci	r17, 0xFF	; 255
    28f2:	83 2d       	mov	r24, r3
    28f4:	90 e0       	ldi	r25, 0x00	; 0
    28f6:	08 17       	cp	r16, r24
    28f8:	19 07       	cpc	r17, r25
    28fa:	0c f4       	brge	.+2      	; 0x28fe <print_number+0x1be>
    28fc:	6b cf       	rjmp	.-298    	; 0x27d4 <print_number+0x94>
    28fe:	89 89       	ldd	r24, Y+17	; 0x11
    2900:	9a 89       	ldd	r25, Y+18	; 0x12
    2902:	8d bf       	out	0x3d, r24	; 61
    2904:	9e bf       	out	0x3e, r25	; 62
    2906:	62 96       	adiw	r28, 0x12	; 18
    2908:	cd bf       	out	0x3d, r28	; 61
    290a:	de bf       	out	0x3e, r29	; 62
    290c:	df 91       	pop	r29
    290e:	cf 91       	pop	r28
    2910:	1f 91       	pop	r17
    2912:	0f 91       	pop	r16
    2914:	ff 90       	pop	r15
    2916:	ef 90       	pop	r14
    2918:	df 90       	pop	r13
    291a:	cf 90       	pop	r12
    291c:	bf 90       	pop	r11
    291e:	af 90       	pop	r10
    2920:	9f 90       	pop	r9
    2922:	8f 90       	pop	r8
    2924:	7f 90       	pop	r7
    2926:	6f 90       	pop	r6
    2928:	5f 90       	pop	r5
    292a:	4f 90       	pop	r4
    292c:	3f 90       	pop	r3
    292e:	2f 90       	pop	r2
    2930:	08 95       	ret

00002932 <print_double_line>:
    2932:	ff 92       	push	r15
    2934:	0f 93       	push	r16
    2936:	1f 93       	push	r17
    2938:	cf 93       	push	r28
    293a:	df 93       	push	r29
    293c:	f6 2e       	mov	r15, r22
    293e:	c2 2f       	mov	r28, r18
    2940:	00 23       	and	r16, r16
    2942:	81 f0       	breq	.+32     	; 0x2964 <print_double_line+0x32>
    2944:	d4 2f       	mov	r29, r20
    2946:	d8 1b       	sub	r29, r24
    2948:	0e 94 fb 11 	call	0x23f6	; 0x23f6 <window_program_start_end_colm_row_addr>
    294c:	c0 e0       	ldi	r28, 0x00	; 0
    294e:	07 c0       	rjmp	.+14     	; 0x295e <print_double_line+0x2c>
    2950:	8f ef       	ldi	r24, 0xFF	; 255
    2952:	0e 94 90 11 	call	0x2320	; 0x2320 <UC1698U_SEND_BYTE_DATA>
    2956:	8f ef       	ldi	r24, 0xFF	; 255
    2958:	0e 94 90 11 	call	0x2320	; 0x2320 <UC1698U_SEND_BYTE_DATA>
    295c:	cf 5f       	subi	r28, 0xFF	; 255
    295e:	cd 17       	cp	r28, r29
    2960:	b8 f3       	brcs	.-18     	; 0x2950 <print_double_line+0x1e>
    2962:	13 c0       	rjmp	.+38     	; 0x298a <print_double_line+0x58>
    2964:	0e 94 fb 11 	call	0x23f6	; 0x23f6 <window_program_start_end_colm_row_addr>
    2968:	0c 2f       	mov	r16, r28
    296a:	10 e0       	ldi	r17, 0x00	; 0
    296c:	0f 19       	sub	r16, r15
    296e:	11 09       	sbc	r17, r1
    2970:	c0 e0       	ldi	r28, 0x00	; 0
    2972:	d0 e0       	ldi	r29, 0x00	; 0
    2974:	07 c0       	rjmp	.+14     	; 0x2984 <print_double_line+0x52>
    2976:	8f ef       	ldi	r24, 0xFF	; 255
    2978:	0e 94 90 11 	call	0x2320	; 0x2320 <UC1698U_SEND_BYTE_DATA>
    297c:	80 e0       	ldi	r24, 0x00	; 0
    297e:	0e 94 90 11 	call	0x2320	; 0x2320 <UC1698U_SEND_BYTE_DATA>
    2982:	21 96       	adiw	r28, 0x01	; 1
    2984:	c0 17       	cp	r28, r16
    2986:	d1 07       	cpc	r29, r17
    2988:	b0 f3       	brcs	.-20     	; 0x2976 <print_double_line+0x44>
    298a:	df 91       	pop	r29
    298c:	cf 91       	pop	r28
    298e:	1f 91       	pop	r17
    2990:	0f 91       	pop	r16
    2992:	ff 90       	pop	r15
    2994:	08 95       	ret

00002996 <print_line>:
    2996:	ff 92       	push	r15
    2998:	0f 93       	push	r16
    299a:	1f 93       	push	r17
    299c:	cf 93       	push	r28
    299e:	df 93       	push	r29
    29a0:	f6 2e       	mov	r15, r22
    29a2:	c2 2f       	mov	r28, r18
    29a4:	00 23       	and	r16, r16
    29a6:	81 f0       	breq	.+32     	; 0x29c8 <print_line+0x32>
    29a8:	d4 2f       	mov	r29, r20
    29aa:	d8 1b       	sub	r29, r24
    29ac:	0e 94 fb 11 	call	0x23f6	; 0x23f6 <window_program_start_end_colm_row_addr>
    29b0:	c0 e0       	ldi	r28, 0x00	; 0
    29b2:	07 c0       	rjmp	.+14     	; 0x29c2 <print_line+0x2c>
    29b4:	8f ef       	ldi	r24, 0xFF	; 255
    29b6:	0e 94 90 11 	call	0x2320	; 0x2320 <UC1698U_SEND_BYTE_DATA>
    29ba:	8f ef       	ldi	r24, 0xFF	; 255
    29bc:	0e 94 90 11 	call	0x2320	; 0x2320 <UC1698U_SEND_BYTE_DATA>
    29c0:	cf 5f       	subi	r28, 0xFF	; 255
    29c2:	cd 17       	cp	r28, r29
    29c4:	b8 f3       	brcs	.-18     	; 0x29b4 <print_line+0x1e>
    29c6:	13 c0       	rjmp	.+38     	; 0x29ee <print_line+0x58>
    29c8:	0e 94 fb 11 	call	0x23f6	; 0x23f6 <window_program_start_end_colm_row_addr>
    29cc:	0c 2f       	mov	r16, r28
    29ce:	10 e0       	ldi	r17, 0x00	; 0
    29d0:	0f 19       	sub	r16, r15
    29d2:	11 09       	sbc	r17, r1
    29d4:	c0 e0       	ldi	r28, 0x00	; 0
    29d6:	d0 e0       	ldi	r29, 0x00	; 0
    29d8:	07 c0       	rjmp	.+14     	; 0x29e8 <print_line+0x52>
    29da:	88 ef       	ldi	r24, 0xF8	; 248
    29dc:	0e 94 90 11 	call	0x2320	; 0x2320 <UC1698U_SEND_BYTE_DATA>
    29e0:	80 e0       	ldi	r24, 0x00	; 0
    29e2:	0e 94 90 11 	call	0x2320	; 0x2320 <UC1698U_SEND_BYTE_DATA>
    29e6:	21 96       	adiw	r28, 0x01	; 1
    29e8:	c0 17       	cp	r28, r16
    29ea:	d1 07       	cpc	r29, r17
    29ec:	b0 f3       	brcs	.-20     	; 0x29da <print_line+0x44>
    29ee:	df 91       	pop	r29
    29f0:	cf 91       	pop	r28
    29f2:	1f 91       	pop	r17
    29f4:	0f 91       	pop	r16
    29f6:	ff 90       	pop	r15
    29f8:	08 95       	ret

000029fa <draw_filled_rectangle>:
    29fa:	df 92       	push	r13
    29fc:	ef 92       	push	r14
    29fe:	ff 92       	push	r15
    2a00:	0f 93       	push	r16
    2a02:	1f 93       	push	r17
    2a04:	cf 93       	push	r28
    2a06:	df 93       	push	r29
    2a08:	f8 2e       	mov	r15, r24
    2a0a:	d6 2e       	mov	r13, r22
    2a0c:	e4 2e       	mov	r14, r20
    2a0e:	02 2f       	mov	r16, r18
    2a10:	06 1b       	sub	r16, r22
    2a12:	84 2f       	mov	r24, r20
    2a14:	90 e0       	ldi	r25, 0x00	; 0
    2a16:	8f 19       	sub	r24, r15
    2a18:	91 09       	sbc	r25, r1
    2a1a:	63 e0       	ldi	r22, 0x03	; 3
    2a1c:	70 e0       	ldi	r23, 0x00	; 0
    2a1e:	0e 94 f5 2b 	call	0x57ea	; 0x57ea <__divmodhi4>
    2a22:	d6 2f       	mov	r29, r22
    2a24:	10 e0       	ldi	r17, 0x00	; 0
    2a26:	13 c0       	rjmp	.+38     	; 0x2a4e <draw_filled_rectangle+0x54>
    2a28:	61 2f       	mov	r22, r17
    2a2a:	6d 0d       	add	r22, r13
    2a2c:	26 2f       	mov	r18, r22
    2a2e:	4e 2d       	mov	r20, r14
    2a30:	8f 2d       	mov	r24, r15
    2a32:	0e 94 fb 11 	call	0x23f6	; 0x23f6 <window_program_start_end_colm_row_addr>
    2a36:	c0 e0       	ldi	r28, 0x00	; 0
    2a38:	07 c0       	rjmp	.+14     	; 0x2a48 <draw_filled_rectangle+0x4e>
    2a3a:	8f ef       	ldi	r24, 0xFF	; 255
    2a3c:	0e 94 90 11 	call	0x2320	; 0x2320 <UC1698U_SEND_BYTE_DATA>
    2a40:	8f ef       	ldi	r24, 0xFF	; 255
    2a42:	0e 94 90 11 	call	0x2320	; 0x2320 <UC1698U_SEND_BYTE_DATA>
    2a46:	cf 5f       	subi	r28, 0xFF	; 255
    2a48:	cd 17       	cp	r28, r29
    2a4a:	b8 f3       	brcs	.-18     	; 0x2a3a <draw_filled_rectangle+0x40>
    2a4c:	1f 5f       	subi	r17, 0xFF	; 255
    2a4e:	10 17       	cp	r17, r16
    2a50:	58 f3       	brcs	.-42     	; 0x2a28 <draw_filled_rectangle+0x2e>
    2a52:	df 91       	pop	r29
    2a54:	cf 91       	pop	r28
    2a56:	1f 91       	pop	r17
    2a58:	0f 91       	pop	r16
    2a5a:	ff 90       	pop	r15
    2a5c:	ef 90       	pop	r14
    2a5e:	df 90       	pop	r13
    2a60:	08 95       	ret

00002a62 <delete_rectangle>:
    2a62:	df 92       	push	r13
    2a64:	ef 92       	push	r14
    2a66:	ff 92       	push	r15
    2a68:	0f 93       	push	r16
    2a6a:	1f 93       	push	r17
    2a6c:	cf 93       	push	r28
    2a6e:	df 93       	push	r29
    2a70:	f8 2e       	mov	r15, r24
    2a72:	d6 2e       	mov	r13, r22
    2a74:	e4 2e       	mov	r14, r20
    2a76:	02 2f       	mov	r16, r18
    2a78:	06 1b       	sub	r16, r22
    2a7a:	d4 2f       	mov	r29, r20
    2a7c:	d8 1b       	sub	r29, r24
    2a7e:	10 e0       	ldi	r17, 0x00	; 0
    2a80:	13 c0       	rjmp	.+38     	; 0x2aa8 <delete_rectangle+0x46>
    2a82:	61 2f       	mov	r22, r17
    2a84:	6d 0d       	add	r22, r13
    2a86:	26 2f       	mov	r18, r22
    2a88:	4e 2d       	mov	r20, r14
    2a8a:	8f 2d       	mov	r24, r15
    2a8c:	0e 94 fb 11 	call	0x23f6	; 0x23f6 <window_program_start_end_colm_row_addr>
    2a90:	c0 e0       	ldi	r28, 0x00	; 0
    2a92:	07 c0       	rjmp	.+14     	; 0x2aa2 <delete_rectangle+0x40>
    2a94:	80 e0       	ldi	r24, 0x00	; 0
    2a96:	0e 94 90 11 	call	0x2320	; 0x2320 <UC1698U_SEND_BYTE_DATA>
    2a9a:	80 e0       	ldi	r24, 0x00	; 0
    2a9c:	0e 94 90 11 	call	0x2320	; 0x2320 <UC1698U_SEND_BYTE_DATA>
    2aa0:	cf 5f       	subi	r28, 0xFF	; 255
    2aa2:	cd 17       	cp	r28, r29
    2aa4:	b8 f3       	brcs	.-18     	; 0x2a94 <delete_rectangle+0x32>
    2aa6:	1f 5f       	subi	r17, 0xFF	; 255
    2aa8:	10 17       	cp	r17, r16
    2aaa:	58 f3       	brcs	.-42     	; 0x2a82 <delete_rectangle+0x20>
    2aac:	df 91       	pop	r29
    2aae:	cf 91       	pop	r28
    2ab0:	1f 91       	pop	r17
    2ab2:	0f 91       	pop	r16
    2ab4:	ff 90       	pop	r15
    2ab6:	ef 90       	pop	r14
    2ab8:	df 90       	pop	r13
    2aba:	08 95       	ret

00002abc <keypad_gpio_init>:
    2abc:	a0 ea       	ldi	r26, 0xA0	; 160
    2abe:	b4 e0       	ldi	r27, 0x04	; 4
    2ac0:	8c 91       	ld	r24, X
    2ac2:	87 7f       	andi	r24, 0xF7	; 247
    2ac4:	8c 93       	st	X, r24
    2ac6:	53 96       	adiw	r26, 0x13	; 19
    2ac8:	8c 91       	ld	r24, X
    2aca:	53 97       	sbiw	r26, 0x13	; 19
    2acc:	82 60       	ori	r24, 0x02	; 2
    2ace:	53 96       	adiw	r26, 0x13	; 19
    2ad0:	8c 93       	st	X, r24
    2ad2:	53 97       	sbiw	r26, 0x13	; 19
    2ad4:	e0 e8       	ldi	r30, 0x80	; 128
    2ad6:	f4 e0       	ldi	r31, 0x04	; 4
    2ad8:	80 81       	ld	r24, Z
    2ada:	8d 7f       	andi	r24, 0xFD	; 253
    2adc:	80 83       	st	Z, r24
    2ade:	81 89       	ldd	r24, Z+17	; 0x11
    2ae0:	82 60       	ori	r24, 0x02	; 2
    2ae2:	81 8b       	std	Z+17, r24	; 0x11
    2ae4:	80 81       	ld	r24, Z
    2ae6:	8b 7f       	andi	r24, 0xFB	; 251
    2ae8:	80 83       	st	Z, r24
    2aea:	82 89       	ldd	r24, Z+18	; 0x12
    2aec:	82 60       	ori	r24, 0x02	; 2
    2aee:	82 8b       	std	Z+18, r24	; 0x12
    2af0:	8c 91       	ld	r24, X
    2af2:	8b 7f       	andi	r24, 0xFB	; 251
    2af4:	8c 93       	st	X, r24
    2af6:	52 96       	adiw	r26, 0x12	; 18
    2af8:	8c 91       	ld	r24, X
    2afa:	52 97       	sbiw	r26, 0x12	; 18
    2afc:	82 60       	ori	r24, 0x02	; 2
    2afe:	52 96       	adiw	r26, 0x12	; 18
    2b00:	8c 93       	st	X, r24
    2b02:	80 81       	ld	r24, Z
    2b04:	8e 7f       	andi	r24, 0xFE	; 254
    2b06:	80 83       	st	Z, r24
    2b08:	80 89       	ldd	r24, Z+16	; 0x10
    2b0a:	82 60       	ori	r24, 0x02	; 2
    2b0c:	80 8b       	std	Z+16, r24	; 0x10
    2b0e:	e0 e4       	ldi	r30, 0x40	; 64
    2b10:	f4 e0       	ldi	r31, 0x04	; 4
    2b12:	80 81       	ld	r24, Z
    2b14:	84 60       	ori	r24, 0x04	; 4
    2b16:	80 83       	st	Z, r24
    2b18:	e0 e2       	ldi	r30, 0x20	; 32
    2b1a:	f4 e0       	ldi	r31, 0x04	; 4
    2b1c:	80 81       	ld	r24, Z
    2b1e:	80 62       	ori	r24, 0x20	; 32
    2b20:	80 83       	st	Z, r24
    2b22:	08 95       	ret

00002b24 <unit_change>:
    2b24:	80 91 89 42 	lds	r24, 0x4289	; 0x804289 <unit_button_pressed_flag>
    2b28:	88 23       	and	r24, r24
    2b2a:	b9 f0       	breq	.+46     	; 0x2b5a <unit_change+0x36>
    2b2c:	81 e0       	ldi	r24, 0x01	; 1
    2b2e:	80 93 7d 42 	sts	0x427D, r24	; 0x80427d <backlit_on_flag>
    2b32:	80 91 16 40 	lds	r24, 0x4016	; 0x804016 <unit_mode>
    2b36:	8f 5f       	subi	r24, 0xFF	; 255
    2b38:	80 93 16 40 	sts	0x4016, r24	; 0x804016 <unit_mode>
    2b3c:	84 30       	cpi	r24, 0x04	; 4
    2b3e:	18 f0       	brcs	.+6      	; 0x2b46 <unit_change+0x22>
    2b40:	81 e0       	ldi	r24, 0x01	; 1
    2b42:	80 93 16 40 	sts	0x4016, r24	; 0x804016 <unit_mode>
    2b46:	80 91 16 40 	lds	r24, 0x4016	; 0x804016 <unit_mode>
    2b4a:	81 50       	subi	r24, 0x01	; 1
    2b4c:	83 30       	cpi	r24, 0x03	; 3
    2b4e:	18 f0       	brcs	.+6      	; 0x2b56 <unit_change+0x32>
    2b50:	81 e0       	ldi	r24, 0x01	; 1
    2b52:	80 93 16 40 	sts	0x4016, r24	; 0x804016 <unit_mode>
    2b56:	10 92 89 42 	sts	0x4289, r1	; 0x804289 <unit_button_pressed_flag>
    2b5a:	08 95       	ret

00002b5c <MOTOR_ON_OFF>:
    2b5c:	88 23       	and	r24, r24
    2b5e:	69 f1       	breq	.+90     	; 0x2bba <MOTOR_ON_OFF+0x5e>
    2b60:	e0 e8       	ldi	r30, 0x80	; 128
    2b62:	f4 e0       	ldi	r31, 0x04	; 4
    2b64:	84 81       	ldd	r24, Z+4	; 0x04
    2b66:	88 60       	ori	r24, 0x08	; 8
    2b68:	84 83       	std	Z+4, r24	; 0x04
    2b6a:	e0 e0       	ldi	r30, 0x00	; 0
    2b6c:	fa e0       	ldi	r31, 0x0A	; 10
    2b6e:	80 81       	ld	r24, Z
    2b70:	81 60       	ori	r24, 0x01	; 1
    2b72:	80 83       	st	Z, r24
    2b74:	80 91 55 42 	lds	r24, 0x4255	; 0x804255 <Duty_cycle>
    2b78:	90 91 56 42 	lds	r25, 0x4256	; 0x804256 <Duty_cycle+0x1>
    2b7c:	80 a7       	std	Z+40, r24	; 0x28
    2b7e:	91 a7       	std	Z+41, r25	; 0x29
    2b80:	81 e0       	ldi	r24, 0x01	; 1
    2b82:	80 93 5b 42 	sts	0x425B, r24	; 0x80425b <countRunTime>
    2b86:	80 91 a2 42 	lds	r24, 0x42A2	; 0x8042a2 <millis>
    2b8a:	90 91 a3 42 	lds	r25, 0x42A3	; 0x8042a3 <millis+0x1>
    2b8e:	a0 91 a4 42 	lds	r26, 0x42A4	; 0x8042a4 <millis+0x2>
    2b92:	b0 91 a5 42 	lds	r27, 0x42A5	; 0x8042a5 <millis+0x3>
    2b96:	80 93 8b 42 	sts	0x428B, r24	; 0x80428b <g_currentMillis_runTime>
    2b9a:	90 93 8c 42 	sts	0x428C, r25	; 0x80428c <g_currentMillis_runTime+0x1>
    2b9e:	a0 93 8d 42 	sts	0x428D, r26	; 0x80428d <g_currentMillis_runTime+0x2>
    2ba2:	b0 93 8e 42 	sts	0x428E, r27	; 0x80428e <g_currentMillis_runTime+0x3>
    2ba6:	80 91 6a 42 	lds	r24, 0x426A	; 0x80426a <power_save_mode_on_flag>
    2baa:	88 23       	and	r24, r24
    2bac:	c1 f0       	breq	.+48     	; 0x2bde <MOTOR_ON_OFF+0x82>
    2bae:	81 e0       	ldi	r24, 0x01	; 1
    2bb0:	80 93 14 40 	sts	0x4014, r24	; 0x804014 <update_power_save_icon_flag>
    2bb4:	10 92 69 42 	sts	0x4269, r1	; 0x804269 <power_save_icon_blink_flag>
    2bb8:	08 95       	ret
    2bba:	81 11       	cpse	r24, r1
    2bbc:	10 c0       	rjmp	.+32     	; 0x2bde <MOTOR_ON_OFF+0x82>
    2bbe:	e0 e8       	ldi	r30, 0x80	; 128
    2bc0:	f4 e0       	ldi	r31, 0x04	; 4
    2bc2:	84 81       	ldd	r24, Z+4	; 0x04
    2bc4:	87 7f       	andi	r24, 0xF7	; 247
    2bc6:	84 83       	std	Z+4, r24	; 0x04
    2bc8:	e0 e0       	ldi	r30, 0x00	; 0
    2bca:	fa e0       	ldi	r31, 0x0A	; 10
    2bcc:	80 81       	ld	r24, Z
    2bce:	81 60       	ori	r24, 0x01	; 1
    2bd0:	80 83       	st	Z, r24
    2bd2:	10 a6       	std	Z+40, r1	; 0x28
    2bd4:	11 a6       	std	Z+41, r1	; 0x29
    2bd6:	10 92 5b 42 	sts	0x425B, r1	; 0x80425b <countRunTime>
    2bda:	10 92 87 42 	sts	0x4287, r1	; 0x804287 <button_motor_on_off_flag>
    2bde:	08 95       	ret

00002be0 <play_pause_button_main>:
    2be0:	80 91 86 42 	lds	r24, 0x4286	; 0x804286 <play_pause_button_press_flag>
    2be4:	88 23       	and	r24, r24
    2be6:	c9 f1       	breq	.+114    	; 0x2c5a <play_pause_button_main+0x7a>
    2be8:	8f ea       	ldi	r24, 0xAF	; 175
    2bea:	90 e4       	ldi	r25, 0x40	; 64
    2bec:	0e 94 da 0f 	call	0x1fb4	; 0x1fb4 <USART1_sendString>
    2bf0:	80 91 87 42 	lds	r24, 0x4287	; 0x804287 <button_motor_on_off_flag>
    2bf4:	81 11       	cpse	r24, r1
    2bf6:	0a c0       	rjmp	.+20     	; 0x2c0c <play_pause_button_main+0x2c>
    2bf8:	80 91 55 42 	lds	r24, 0x4255	; 0x804255 <Duty_cycle>
    2bfc:	90 91 56 42 	lds	r25, 0x4256	; 0x804256 <Duty_cycle+0x1>
    2c00:	80 93 28 0a 	sts	0x0A28, r24	; 0x800a28 <__TEXT_REGION_LENGTH__+0x7e0a28>
    2c04:	90 93 29 0a 	sts	0x0A29, r25	; 0x800a29 <__TEXT_REGION_LENGTH__+0x7e0a29>
    2c08:	89 2b       	or	r24, r25
    2c0a:	01 f5       	brne	.+64     	; 0x2c4c <play_pause_button_main+0x6c>
    2c0c:	10 92 87 42 	sts	0x4287, r1	; 0x804287 <button_motor_on_off_flag>
    2c10:	10 92 6d 42 	sts	0x426D, r1	; 0x80426d <smart_switch_cont_motor_on_flag>
    2c14:	10 92 71 42 	sts	0x4271, r1	; 0x804271 <foot_switch_press_flag>
    2c18:	10 92 70 42 	sts	0x4270, r1	; 0x804270 <foot_switch_release_flag>
    2c1c:	10 92 61 42 	sts	0x4261, r1	; 0x804261 <smart_switch_timmer>
    2c20:	10 92 62 42 	sts	0x4262, r1	; 0x804262 <smart_switch_timmer+0x1>
    2c24:	10 92 63 42 	sts	0x4263, r1	; 0x804263 <smart_switch_timmer+0x2>
    2c28:	10 92 64 42 	sts	0x4264, r1	; 0x804264 <smart_switch_timmer+0x3>
    2c2c:	10 92 6c 42 	sts	0x426C, r1	; 0x80426c <foot_switch_press_count>
    2c30:	10 92 6b 42 	sts	0x426B, r1	; 0x80426b <power_save_timer_on_flag>
    2c34:	10 92 65 42 	sts	0x4265, r1	; 0x804265 <power_save_motor_on_timmer>
    2c38:	10 92 66 42 	sts	0x4266, r1	; 0x804266 <power_save_motor_on_timmer+0x1>
    2c3c:	10 92 67 42 	sts	0x4267, r1	; 0x804267 <power_save_motor_on_timmer+0x2>
    2c40:	10 92 68 42 	sts	0x4268, r1	; 0x804268 <power_save_motor_on_timmer+0x3>
    2c44:	80 e0       	ldi	r24, 0x00	; 0
    2c46:	0e 94 ae 15 	call	0x2b5c	; 0x2b5c <MOTOR_ON_OFF>
    2c4a:	05 c0       	rjmp	.+10     	; 0x2c56 <play_pause_button_main+0x76>
    2c4c:	81 e0       	ldi	r24, 0x01	; 1
    2c4e:	80 93 87 42 	sts	0x4287, r24	; 0x804287 <button_motor_on_off_flag>
    2c52:	0e 94 ae 15 	call	0x2b5c	; 0x2b5c <MOTOR_ON_OFF>
    2c56:	10 92 86 42 	sts	0x4286, r1	; 0x804286 <play_pause_button_press_flag>
    2c5a:	08 95       	ret

00002c5c <dc_suction_pressure_main>:
    2c5c:	cf 92       	push	r12
    2c5e:	df 92       	push	r13
    2c60:	ef 92       	push	r14
    2c62:	ff 92       	push	r15
    2c64:	0e 94 36 11 	call	0x226c	; 0x226c <AMS_mmhg_average>
    2c68:	6b 01       	movw	r12, r22
    2c6a:	7c 01       	movw	r14, r24
    2c6c:	60 93 be 42 	sts	0x42BE, r22	; 0x8042be <current_pressure_mmhg>
    2c70:	70 93 bf 42 	sts	0x42BF, r23	; 0x8042bf <current_pressure_mmhg+0x1>
    2c74:	80 93 c0 42 	sts	0x42C0, r24	; 0x8042c0 <current_pressure_mmhg+0x2>
    2c78:	90 93 c1 42 	sts	0x42C1, r25	; 0x8042c1 <current_pressure_mmhg+0x3>
    2c7c:	20 e0       	ldi	r18, 0x00	; 0
    2c7e:	30 e0       	ldi	r19, 0x00	; 0
    2c80:	a9 01       	movw	r20, r18
    2c82:	0e 94 24 2a 	call	0x5448	; 0x5448 <__cmpsf2>
    2c86:	88 23       	and	r24, r24
    2c88:	4c f4       	brge	.+18     	; 0x2c9c <dc_suction_pressure_main+0x40>
    2c8a:	10 92 be 42 	sts	0x42BE, r1	; 0x8042be <current_pressure_mmhg>
    2c8e:	10 92 bf 42 	sts	0x42BF, r1	; 0x8042bf <current_pressure_mmhg+0x1>
    2c92:	10 92 c0 42 	sts	0x42C0, r1	; 0x8042c0 <current_pressure_mmhg+0x2>
    2c96:	10 92 c1 42 	sts	0x42C1, r1	; 0x8042c1 <current_pressure_mmhg+0x3>
    2c9a:	16 c0       	rjmp	.+44     	; 0x2cc8 <dc_suction_pressure_main+0x6c>
    2c9c:	20 e0       	ldi	r18, 0x00	; 0
    2c9e:	30 e0       	ldi	r19, 0x00	; 0
    2ca0:	48 e4       	ldi	r20, 0x48	; 72
    2ca2:	54 e4       	ldi	r21, 0x44	; 68
    2ca4:	c7 01       	movw	r24, r14
    2ca6:	b6 01       	movw	r22, r12
    2ca8:	0e 94 83 2b 	call	0x5706	; 0x5706 <__gesf2>
    2cac:	18 16       	cp	r1, r24
    2cae:	64 f4       	brge	.+24     	; 0x2cc8 <dc_suction_pressure_main+0x6c>
    2cb0:	80 e0       	ldi	r24, 0x00	; 0
    2cb2:	90 e0       	ldi	r25, 0x00	; 0
    2cb4:	a8 e4       	ldi	r26, 0x48	; 72
    2cb6:	b4 e4       	ldi	r27, 0x44	; 68
    2cb8:	80 93 be 42 	sts	0x42BE, r24	; 0x8042be <current_pressure_mmhg>
    2cbc:	90 93 bf 42 	sts	0x42BF, r25	; 0x8042bf <current_pressure_mmhg+0x1>
    2cc0:	a0 93 c0 42 	sts	0x42C0, r26	; 0x8042c0 <current_pressure_mmhg+0x2>
    2cc4:	b0 93 c1 42 	sts	0x42C1, r27	; 0x8042c1 <current_pressure_mmhg+0x3>
    2cc8:	80 91 16 40 	lds	r24, 0x4016	; 0x804016 <unit_mode>
    2ccc:	82 30       	cpi	r24, 0x02	; 2
    2cce:	49 f1       	breq	.+82     	; 0x2d22 <dc_suction_pressure_main+0xc6>
    2cd0:	83 30       	cpi	r24, 0x03	; 3
    2cd2:	09 f4       	brne	.+2      	; 0x2cd6 <dc_suction_pressure_main+0x7a>
    2cd4:	78 c0       	rjmp	.+240    	; 0x2dc6 <dc_suction_pressure_main+0x16a>
    2cd6:	81 30       	cpi	r24, 0x01	; 1
    2cd8:	09 f0       	breq	.+2      	; 0x2cdc <dc_suction_pressure_main+0x80>
    2cda:	aa c0       	rjmp	.+340    	; 0x2e30 <dc_suction_pressure_main+0x1d4>
    2cdc:	80 e0       	ldi	r24, 0x00	; 0
    2cde:	90 e0       	ldi	r25, 0x00	; 0
    2ce0:	aa e7       	ldi	r26, 0x7A	; 122
    2ce2:	b5 e4       	ldi	r27, 0x45	; 69
    2ce4:	80 93 aa 42 	sts	0x42AA, r24	; 0x8042aa <allowedPressureDifference>
    2ce8:	90 93 ab 42 	sts	0x42AB, r25	; 0x8042ab <allowedPressureDifference+0x1>
    2cec:	a0 93 ac 42 	sts	0x42AC, r26	; 0x8042ac <allowedPressureDifference+0x2>
    2cf0:	b0 93 ad 42 	sts	0x42AD, r27	; 0x8042ad <allowedPressureDifference+0x3>
    2cf4:	20 e0       	ldi	r18, 0x00	; 0
    2cf6:	30 e0       	ldi	r19, 0x00	; 0
    2cf8:	48 ec       	ldi	r20, 0xC8	; 200
    2cfa:	52 e4       	ldi	r21, 0x42	; 66
    2cfc:	60 91 be 42 	lds	r22, 0x42BE	; 0x8042be <current_pressure_mmhg>
    2d00:	70 91 bf 42 	lds	r23, 0x42BF	; 0x8042bf <current_pressure_mmhg+0x1>
    2d04:	80 91 c0 42 	lds	r24, 0x42C0	; 0x8042c0 <current_pressure_mmhg+0x2>
    2d08:	90 91 c1 42 	lds	r25, 0x42C1	; 0x8042c1 <current_pressure_mmhg+0x3>
    2d0c:	0e 94 88 2b 	call	0x5710	; 0x5710 <__mulsf3>
    2d10:	60 93 ae 42 	sts	0x42AE, r22	; 0x8042ae <currentPressure>
    2d14:	70 93 af 42 	sts	0x42AF, r23	; 0x8042af <currentPressure+0x1>
    2d18:	80 93 b0 42 	sts	0x42B0, r24	; 0x8042b0 <currentPressure+0x2>
    2d1c:	90 93 b1 42 	sts	0x42B1, r25	; 0x8042b1 <currentPressure+0x3>
    2d20:	ac c0       	rjmp	.+344    	; 0x2e7a <dc_suction_pressure_main+0x21e>
    2d22:	60 91 be 42 	lds	r22, 0x42BE	; 0x8042be <current_pressure_mmhg>
    2d26:	70 91 bf 42 	lds	r23, 0x42BF	; 0x8042bf <current_pressure_mmhg+0x1>
    2d2a:	80 91 c0 42 	lds	r24, 0x42C0	; 0x8042c0 <current_pressure_mmhg+0x2>
    2d2e:	90 91 c1 42 	lds	r25, 0x42C1	; 0x8042c1 <current_pressure_mmhg+0x3>
    2d32:	29 e1       	ldi	r18, 0x19	; 25
    2d34:	34 e0       	ldi	r19, 0x04	; 4
    2d36:	4e ea       	ldi	r20, 0xAE	; 174
    2d38:	5f e3       	ldi	r21, 0x3F	; 63
    2d3a:	0e 94 88 2b 	call	0x5710	; 0x5710 <__mulsf3>
    2d3e:	60 93 ba 42 	sts	0x42BA, r22	; 0x8042ba <current_pressure_cmh2O>
    2d42:	70 93 bb 42 	sts	0x42BB, r23	; 0x8042bb <current_pressure_cmh2O+0x1>
    2d46:	80 93 bc 42 	sts	0x42BC, r24	; 0x8042bc <current_pressure_cmh2O+0x2>
    2d4a:	90 93 bd 42 	sts	0x42BD, r25	; 0x8042bd <current_pressure_cmh2O+0x3>
    2d4e:	0f 2e       	mov	r0, r31
    2d50:	c1 2c       	mov	r12, r1
    2d52:	f0 e8       	ldi	r31, 0x80	; 128
    2d54:	df 2e       	mov	r13, r31
    2d56:	fb e3       	ldi	r31, 0x3B	; 59
    2d58:	ef 2e       	mov	r14, r31
    2d5a:	f5 e4       	ldi	r31, 0x45	; 69
    2d5c:	ff 2e       	mov	r15, r31
    2d5e:	f0 2d       	mov	r31, r0
    2d60:	c0 92 aa 42 	sts	0x42AA, r12	; 0x8042aa <allowedPressureDifference>
    2d64:	d0 92 ab 42 	sts	0x42AB, r13	; 0x8042ab <allowedPressureDifference+0x1>
    2d68:	e0 92 ac 42 	sts	0x42AC, r14	; 0x8042ac <allowedPressureDifference+0x2>
    2d6c:	f0 92 ad 42 	sts	0x42AD, r15	; 0x8042ad <allowedPressureDifference+0x3>
    2d70:	24 e3       	ldi	r18, 0x34	; 52
    2d72:	33 ef       	ldi	r19, 0xF3	; 243
    2d74:	47 e8       	ldi	r20, 0x87	; 135
    2d76:	54 e4       	ldi	r21, 0x44	; 68
    2d78:	0e 94 83 2b 	call	0x5706	; 0x5706 <__gesf2>
    2d7c:	18 16       	cp	r1, r24
    2d7e:	64 f4       	brge	.+24     	; 0x2d98 <dc_suction_pressure_main+0x13c>
    2d80:	84 e3       	ldi	r24, 0x34	; 52
    2d82:	93 ef       	ldi	r25, 0xF3	; 243
    2d84:	a7 e8       	ldi	r26, 0x87	; 135
    2d86:	b4 e4       	ldi	r27, 0x44	; 68
    2d88:	80 93 ba 42 	sts	0x42BA, r24	; 0x8042ba <current_pressure_cmh2O>
    2d8c:	90 93 bb 42 	sts	0x42BB, r25	; 0x8042bb <current_pressure_cmh2O+0x1>
    2d90:	a0 93 bc 42 	sts	0x42BC, r26	; 0x8042bc <current_pressure_cmh2O+0x2>
    2d94:	b0 93 bd 42 	sts	0x42BD, r27	; 0x8042bd <current_pressure_cmh2O+0x3>
    2d98:	20 e0       	ldi	r18, 0x00	; 0
    2d9a:	30 e0       	ldi	r19, 0x00	; 0
    2d9c:	48 ec       	ldi	r20, 0xC8	; 200
    2d9e:	52 e4       	ldi	r21, 0x42	; 66
    2da0:	60 91 ba 42 	lds	r22, 0x42BA	; 0x8042ba <current_pressure_cmh2O>
    2da4:	70 91 bb 42 	lds	r23, 0x42BB	; 0x8042bb <current_pressure_cmh2O+0x1>
    2da8:	80 91 bc 42 	lds	r24, 0x42BC	; 0x8042bc <current_pressure_cmh2O+0x2>
    2dac:	90 91 bd 42 	lds	r25, 0x42BD	; 0x8042bd <current_pressure_cmh2O+0x3>
    2db0:	0e 94 88 2b 	call	0x5710	; 0x5710 <__mulsf3>
    2db4:	60 93 ae 42 	sts	0x42AE, r22	; 0x8042ae <currentPressure>
    2db8:	70 93 af 42 	sts	0x42AF, r23	; 0x8042af <currentPressure+0x1>
    2dbc:	80 93 b0 42 	sts	0x42B0, r24	; 0x8042b0 <currentPressure+0x2>
    2dc0:	90 93 b1 42 	sts	0x42B1, r25	; 0x8042b1 <currentPressure+0x3>
    2dc4:	5a c0       	rjmp	.+180    	; 0x2e7a <dc_suction_pressure_main+0x21e>
    2dc6:	60 91 be 42 	lds	r22, 0x42BE	; 0x8042be <current_pressure_mmhg>
    2dca:	70 91 bf 42 	lds	r23, 0x42BF	; 0x8042bf <current_pressure_mmhg+0x1>
    2dce:	80 91 c0 42 	lds	r24, 0x42C0	; 0x8042c0 <current_pressure_mmhg+0x2>
    2dd2:	90 91 c1 42 	lds	r25, 0x42C1	; 0x8042c1 <current_pressure_mmhg+0x3>
    2dd6:	26 e7       	ldi	r18, 0x76	; 118
    2dd8:	3e e6       	ldi	r19, 0x6E	; 110
    2dda:	4a e5       	ldi	r20, 0x5A	; 90
    2ddc:	5c e3       	ldi	r21, 0x3C	; 60
    2dde:	0e 94 88 2b 	call	0x5710	; 0x5710 <__mulsf3>
    2de2:	60 93 b6 42 	sts	0x42B6, r22	; 0x8042b6 <current_pressure_mpa>
    2de6:	70 93 b7 42 	sts	0x42B7, r23	; 0x8042b7 <current_pressure_mpa+0x1>
    2dea:	80 93 b8 42 	sts	0x42B8, r24	; 0x8042b8 <current_pressure_mpa+0x2>
    2dee:	90 93 b9 42 	sts	0x42B9, r25	; 0x8042b9 <current_pressure_mpa+0x3>
    2df2:	0f 2e       	mov	r0, r31
    2df4:	c1 2c       	mov	r12, r1
    2df6:	d1 2c       	mov	r13, r1
    2df8:	f8 e4       	ldi	r31, 0x48	; 72
    2dfa:	ef 2e       	mov	r14, r31
    2dfc:	f3 e4       	ldi	r31, 0x43	; 67
    2dfe:	ff 2e       	mov	r15, r31
    2e00:	f0 2d       	mov	r31, r0
    2e02:	c0 92 aa 42 	sts	0x42AA, r12	; 0x8042aa <allowedPressureDifference>
    2e06:	d0 92 ab 42 	sts	0x42AB, r13	; 0x8042ab <allowedPressureDifference+0x1>
    2e0a:	e0 92 ac 42 	sts	0x42AC, r14	; 0x8042ac <allowedPressureDifference+0x2>
    2e0e:	f0 92 ad 42 	sts	0x42AD, r15	; 0x8042ad <allowedPressureDifference+0x3>
    2e12:	20 e0       	ldi	r18, 0x00	; 0
    2e14:	30 e0       	ldi	r19, 0x00	; 0
    2e16:	48 ec       	ldi	r20, 0xC8	; 200
    2e18:	52 e4       	ldi	r21, 0x42	; 66
    2e1a:	0e 94 88 2b 	call	0x5710	; 0x5710 <__mulsf3>
    2e1e:	60 93 ae 42 	sts	0x42AE, r22	; 0x8042ae <currentPressure>
    2e22:	70 93 af 42 	sts	0x42AF, r23	; 0x8042af <currentPressure+0x1>
    2e26:	80 93 b0 42 	sts	0x42B0, r24	; 0x8042b0 <currentPressure+0x2>
    2e2a:	90 93 b1 42 	sts	0x42B1, r25	; 0x8042b1 <currentPressure+0x3>
    2e2e:	25 c0       	rjmp	.+74     	; 0x2e7a <dc_suction_pressure_main+0x21e>
    2e30:	81 e0       	ldi	r24, 0x01	; 1
    2e32:	80 93 16 40 	sts	0x4016, r24	; 0x804016 <unit_mode>
    2e36:	80 e0       	ldi	r24, 0x00	; 0
    2e38:	90 e0       	ldi	r25, 0x00	; 0
    2e3a:	aa e7       	ldi	r26, 0x7A	; 122
    2e3c:	b5 e4       	ldi	r27, 0x45	; 69
    2e3e:	80 93 aa 42 	sts	0x42AA, r24	; 0x8042aa <allowedPressureDifference>
    2e42:	90 93 ab 42 	sts	0x42AB, r25	; 0x8042ab <allowedPressureDifference+0x1>
    2e46:	a0 93 ac 42 	sts	0x42AC, r26	; 0x8042ac <allowedPressureDifference+0x2>
    2e4a:	b0 93 ad 42 	sts	0x42AD, r27	; 0x8042ad <allowedPressureDifference+0x3>
    2e4e:	20 e0       	ldi	r18, 0x00	; 0
    2e50:	30 e0       	ldi	r19, 0x00	; 0
    2e52:	48 ec       	ldi	r20, 0xC8	; 200
    2e54:	52 e4       	ldi	r21, 0x42	; 66
    2e56:	60 91 be 42 	lds	r22, 0x42BE	; 0x8042be <current_pressure_mmhg>
    2e5a:	70 91 bf 42 	lds	r23, 0x42BF	; 0x8042bf <current_pressure_mmhg+0x1>
    2e5e:	80 91 c0 42 	lds	r24, 0x42C0	; 0x8042c0 <current_pressure_mmhg+0x2>
    2e62:	90 91 c1 42 	lds	r25, 0x42C1	; 0x8042c1 <current_pressure_mmhg+0x3>
    2e66:	0e 94 88 2b 	call	0x5710	; 0x5710 <__mulsf3>
    2e6a:	60 93 ae 42 	sts	0x42AE, r22	; 0x8042ae <currentPressure>
    2e6e:	70 93 af 42 	sts	0x42AF, r23	; 0x8042af <currentPressure+0x1>
    2e72:	80 93 b0 42 	sts	0x42B0, r24	; 0x8042b0 <currentPressure+0x2>
    2e76:	90 93 b1 42 	sts	0x42B1, r25	; 0x8042b1 <currentPressure+0x3>
    2e7a:	ff 90       	pop	r15
    2e7c:	ef 90       	pop	r14
    2e7e:	df 90       	pop	r13
    2e80:	cf 90       	pop	r12
    2e82:	08 95       	ret

00002e84 <stp_foot_switch_check>:
    2e84:	80 91 48 04 	lds	r24, 0x0448	; 0x800448 <__TEXT_REGION_LENGTH__+0x7e0448>
    2e88:	83 ff       	sbrs	r24, 3
    2e8a:	03 c0       	rjmp	.+6      	; 0x2e92 <stp_foot_switch_check+0xe>
    2e8c:	81 e0       	ldi	r24, 0x01	; 1
    2e8e:	80 93 72 42 	sts	0x4272, r24	; 0x804272 <foot_switch_connected_flag>
    2e92:	08 95       	ret

00002e94 <ams_reset>:
    2e94:	e0 e4       	ldi	r30, 0x40	; 64
    2e96:	f4 e0       	ldi	r31, 0x04	; 4
    2e98:	84 81       	ldd	r24, Z+4	; 0x04
    2e9a:	80 61       	ori	r24, 0x10	; 16
    2e9c:	84 83       	std	Z+4, r24	; 0x04
    2e9e:	2f ef       	ldi	r18, 0xFF	; 255
    2ea0:	8e e9       	ldi	r24, 0x9E	; 158
    2ea2:	94 e2       	ldi	r25, 0x24	; 36
    2ea4:	21 50       	subi	r18, 0x01	; 1
    2ea6:	80 40       	sbci	r24, 0x00	; 0
    2ea8:	90 40       	sbci	r25, 0x00	; 0
    2eaa:	e1 f7       	brne	.-8      	; 0x2ea4 <ams_reset+0x10>
    2eac:	00 c0       	rjmp	.+0      	; 0x2eae <ams_reset+0x1a>
    2eae:	00 00       	nop
    2eb0:	84 81       	ldd	r24, Z+4	; 0x04
    2eb2:	8f 7e       	andi	r24, 0xEF	; 239
    2eb4:	84 83       	std	Z+4, r24	; 0x04
    2eb6:	2f ef       	ldi	r18, 0xFF	; 255
    2eb8:	8e e9       	ldi	r24, 0x9E	; 158
    2eba:	94 e2       	ldi	r25, 0x24	; 36
    2ebc:	21 50       	subi	r18, 0x01	; 1
    2ebe:	80 40       	sbci	r24, 0x00	; 0
    2ec0:	90 40       	sbci	r25, 0x00	; 0
    2ec2:	e1 f7       	brne	.-8      	; 0x2ebc <ams_reset+0x28>
    2ec4:	00 c0       	rjmp	.+0      	; 0x2ec6 <ams_reset+0x32>
    2ec6:	00 00       	nop
    2ec8:	0e 94 da 10 	call	0x21b4	; 0x21b4 <AMS_5812_init>
    2ecc:	08 95       	ret

00002ece <foot_switch_gpio_init>:
    2ece:	e0 e4       	ldi	r30, 0x40	; 64
    2ed0:	f4 e0       	ldi	r31, 0x04	; 4
    2ed2:	80 81       	ld	r24, Z
    2ed4:	8f 77       	andi	r24, 0x7F	; 127
    2ed6:	80 83       	st	Z, r24
    2ed8:	87 89       	ldd	r24, Z+23	; 0x17
    2eda:	81 60       	ori	r24, 0x01	; 1
    2edc:	87 8b       	std	Z+23, r24	; 0x17
    2ede:	80 81       	ld	r24, Z
    2ee0:	87 7f       	andi	r24, 0xF7	; 247
    2ee2:	80 83       	st	Z, r24
    2ee4:	83 89       	ldd	r24, Z+19	; 0x13
    2ee6:	81 60       	ori	r24, 0x01	; 1
    2ee8:	83 8b       	std	Z+19, r24	; 0x13
    2eea:	08 95       	ret

00002eec <foot_switch_init>:
    2eec:	0e 94 67 17 	call	0x2ece	; 0x2ece <foot_switch_gpio_init>
    2ef0:	80 91 48 04 	lds	r24, 0x0448	; 0x800448 <__TEXT_REGION_LENGTH__+0x7e0448>
    2ef4:	83 ff       	sbrs	r24, 3
    2ef6:	04 c0       	rjmp	.+8      	; 0x2f00 <foot_switch_init+0x14>
    2ef8:	81 e0       	ldi	r24, 0x01	; 1
    2efa:	80 93 72 42 	sts	0x4272, r24	; 0x804272 <foot_switch_connected_flag>
    2efe:	08 95       	ret
    2f00:	10 92 72 42 	sts	0x4272, r1	; 0x804272 <foot_switch_connected_flag>
    2f04:	08 95       	ret

00002f06 <foot_switch_detect_check>:
    2f06:	80 91 6f 42 	lds	r24, 0x426F	; 0x80426f <foot_switch_detect_isr_flag>
    2f0a:	88 23       	and	r24, r24
    2f0c:	b1 f0       	breq	.+44     	; 0x2f3a <foot_switch_detect_check+0x34>
    2f0e:	80 91 48 04 	lds	r24, 0x0448	; 0x800448 <__TEXT_REGION_LENGTH__+0x7e0448>
    2f12:	83 ff       	sbrs	r24, 3
    2f14:	09 c0       	rjmp	.+18     	; 0x2f28 <foot_switch_detect_check+0x22>
    2f16:	81 e0       	ldi	r24, 0x01	; 1
    2f18:	80 93 72 42 	sts	0x4272, r24	; 0x804272 <foot_switch_connected_flag>
    2f1c:	e0 e2       	ldi	r30, 0x20	; 32
    2f1e:	f4 e0       	ldi	r31, 0x04	; 4
    2f20:	84 81       	ldd	r24, Z+4	; 0x04
    2f22:	81 60       	ori	r24, 0x01	; 1
    2f24:	84 83       	std	Z+4, r24	; 0x04
    2f26:	07 c0       	rjmp	.+14     	; 0x2f36 <foot_switch_detect_check+0x30>
    2f28:	10 92 72 42 	sts	0x4272, r1	; 0x804272 <foot_switch_connected_flag>
    2f2c:	e0 e2       	ldi	r30, 0x20	; 32
    2f2e:	f4 e0       	ldi	r31, 0x04	; 4
    2f30:	84 81       	ldd	r24, Z+4	; 0x04
    2f32:	8e 7f       	andi	r24, 0xFE	; 254
    2f34:	84 83       	std	Z+4, r24	; 0x04
    2f36:	10 92 6f 42 	sts	0x426F, r1	; 0x80426f <foot_switch_detect_isr_flag>
    2f3a:	80 91 72 42 	lds	r24, 0x4272	; 0x804272 <foot_switch_connected_flag>
    2f3e:	88 23       	and	r24, r24
    2f40:	29 f0       	breq	.+10     	; 0x2f4c <foot_switch_detect_check+0x46>
    2f42:	e0 e2       	ldi	r30, 0x20	; 32
    2f44:	f4 e0       	ldi	r31, 0x04	; 4
    2f46:	94 81       	ldd	r25, Z+4	; 0x04
    2f48:	91 60       	ori	r25, 0x01	; 1
    2f4a:	94 83       	std	Z+4, r25	; 0x04
    2f4c:	08 95       	ret

00002f4e <smart_sensing>:
    2f4e:	0f 93       	push	r16
    2f50:	1f 93       	push	r17
    2f52:	80 91 71 42 	lds	r24, 0x4271	; 0x804271 <foot_switch_press_flag>
    2f56:	88 23       	and	r24, r24
    2f58:	09 f4       	brne	.+2      	; 0x2f5c <smart_sensing+0xe>
    2f5a:	40 c0       	rjmp	.+128    	; 0x2fdc <smart_sensing+0x8e>
    2f5c:	90 91 6d 42 	lds	r25, 0x426D	; 0x80426d <smart_switch_cont_motor_on_flag>
    2f60:	91 11       	cpse	r25, r1
    2f62:	3c c0       	rjmp	.+120    	; 0x2fdc <smart_sensing+0x8e>
    2f64:	90 91 6e 42 	lds	r25, 0x426E	; 0x80426e <smart_switch_normal_motor_on_flag>
    2f68:	91 11       	cpse	r25, r1
    2f6a:	38 c0       	rjmp	.+112    	; 0x2fdc <smart_sensing+0x8e>
    2f6c:	90 91 70 42 	lds	r25, 0x4270	; 0x804270 <foot_switch_release_flag>
    2f70:	99 23       	and	r25, r25
    2f72:	a1 f1       	breq	.+104    	; 0x2fdc <smart_sensing+0x8e>
    2f74:	90 91 6c 42 	lds	r25, 0x426C	; 0x80426c <foot_switch_press_count>
    2f78:	92 30       	cpi	r25, 0x02	; 2
    2f7a:	80 f1       	brcs	.+96     	; 0x2fdc <smart_sensing+0x8e>
    2f7c:	40 91 a2 42 	lds	r20, 0x42A2	; 0x8042a2 <millis>
    2f80:	50 91 a3 42 	lds	r21, 0x42A3	; 0x8042a3 <millis+0x1>
    2f84:	60 91 a4 42 	lds	r22, 0x42A4	; 0x8042a4 <millis+0x2>
    2f88:	70 91 a5 42 	lds	r23, 0x42A5	; 0x8042a5 <millis+0x3>
    2f8c:	00 91 61 42 	lds	r16, 0x4261	; 0x804261 <smart_switch_timmer>
    2f90:	10 91 62 42 	lds	r17, 0x4262	; 0x804262 <smart_switch_timmer+0x1>
    2f94:	20 91 63 42 	lds	r18, 0x4263	; 0x804263 <smart_switch_timmer+0x2>
    2f98:	30 91 64 42 	lds	r19, 0x4264	; 0x804264 <smart_switch_timmer+0x3>
    2f9c:	40 1b       	sub	r20, r16
    2f9e:	51 0b       	sbc	r21, r17
    2fa0:	62 0b       	sbc	r22, r18
    2fa2:	73 0b       	sbc	r23, r19
    2fa4:	48 3e       	cpi	r20, 0xE8	; 232
    2fa6:	53 40       	sbci	r21, 0x03	; 3
    2fa8:	61 05       	cpc	r22, r1
    2faa:	71 05       	cpc	r23, r1
    2fac:	b8 f4       	brcc	.+46     	; 0x2fdc <smart_sensing+0x8e>
    2fae:	81 e0       	ldi	r24, 0x01	; 1
    2fb0:	0e 94 ae 15 	call	0x2b5c	; 0x2b5c <MOTOR_ON_OFF>
    2fb4:	81 e0       	ldi	r24, 0x01	; 1
    2fb6:	80 93 6d 42 	sts	0x426D, r24	; 0x80426d <smart_switch_cont_motor_on_flag>
    2fba:	10 92 71 42 	sts	0x4271, r1	; 0x804271 <foot_switch_press_flag>
    2fbe:	10 92 70 42 	sts	0x4270, r1	; 0x804270 <foot_switch_release_flag>
    2fc2:	10 92 61 42 	sts	0x4261, r1	; 0x804261 <smart_switch_timmer>
    2fc6:	10 92 62 42 	sts	0x4262, r1	; 0x804262 <smart_switch_timmer+0x1>
    2fca:	10 92 63 42 	sts	0x4263, r1	; 0x804263 <smart_switch_timmer+0x2>
    2fce:	10 92 64 42 	sts	0x4264, r1	; 0x804264 <smart_switch_timmer+0x3>
    2fd2:	10 92 6c 42 	sts	0x426C, r1	; 0x80426c <foot_switch_press_count>
    2fd6:	80 93 87 42 	sts	0x4287, r24	; 0x804287 <button_motor_on_off_flag>
    2fda:	c2 c0       	rjmp	.+388    	; 0x3160 <smart_sensing+0x212>
    2fdc:	88 23       	and	r24, r24
    2fde:	69 f1       	breq	.+90     	; 0x303a <smart_sensing+0xec>
    2fe0:	90 91 70 42 	lds	r25, 0x4270	; 0x804270 <foot_switch_release_flag>
    2fe4:	99 23       	and	r25, r25
    2fe6:	49 f1       	breq	.+82     	; 0x303a <smart_sensing+0xec>
    2fe8:	90 91 6d 42 	lds	r25, 0x426D	; 0x80426d <smart_switch_cont_motor_on_flag>
    2fec:	99 23       	and	r25, r25
    2fee:	29 f1       	breq	.+74     	; 0x303a <smart_sensing+0xec>
    2ff0:	80 e0       	ldi	r24, 0x00	; 0
    2ff2:	0e 94 ae 15 	call	0x2b5c	; 0x2b5c <MOTOR_ON_OFF>
    2ff6:	10 92 6d 42 	sts	0x426D, r1	; 0x80426d <smart_switch_cont_motor_on_flag>
    2ffa:	10 92 71 42 	sts	0x4271, r1	; 0x804271 <foot_switch_press_flag>
    2ffe:	10 92 70 42 	sts	0x4270, r1	; 0x804270 <foot_switch_release_flag>
    3002:	10 92 61 42 	sts	0x4261, r1	; 0x804261 <smart_switch_timmer>
    3006:	10 92 62 42 	sts	0x4262, r1	; 0x804262 <smart_switch_timmer+0x1>
    300a:	10 92 63 42 	sts	0x4263, r1	; 0x804263 <smart_switch_timmer+0x2>
    300e:	10 92 64 42 	sts	0x4264, r1	; 0x804264 <smart_switch_timmer+0x3>
    3012:	10 92 6c 42 	sts	0x426C, r1	; 0x80426c <foot_switch_press_count>
    3016:	10 92 87 42 	sts	0x4287, r1	; 0x804287 <button_motor_on_off_flag>
    301a:	80 91 6b 42 	lds	r24, 0x426B	; 0x80426b <power_save_timer_on_flag>
    301e:	88 23       	and	r24, r24
    3020:	09 f4       	brne	.+2      	; 0x3024 <smart_sensing+0xd6>
    3022:	9e c0       	rjmp	.+316    	; 0x3160 <smart_sensing+0x212>
    3024:	10 92 6b 42 	sts	0x426B, r1	; 0x80426b <power_save_timer_on_flag>
    3028:	10 92 65 42 	sts	0x4265, r1	; 0x804265 <power_save_motor_on_timmer>
    302c:	10 92 66 42 	sts	0x4266, r1	; 0x804266 <power_save_motor_on_timmer+0x1>
    3030:	10 92 67 42 	sts	0x4267, r1	; 0x804267 <power_save_motor_on_timmer+0x2>
    3034:	10 92 68 42 	sts	0x4268, r1	; 0x804268 <power_save_motor_on_timmer+0x3>
    3038:	93 c0       	rjmp	.+294    	; 0x3160 <smart_sensing+0x212>
    303a:	88 23       	and	r24, r24
    303c:	a1 f1       	breq	.+104    	; 0x30a6 <smart_sensing+0x158>
    303e:	90 91 6d 42 	lds	r25, 0x426D	; 0x80426d <smart_switch_cont_motor_on_flag>
    3042:	91 11       	cpse	r25, r1
    3044:	30 c0       	rjmp	.+96     	; 0x30a6 <smart_sensing+0x158>
    3046:	90 91 6e 42 	lds	r25, 0x426E	; 0x80426e <smart_switch_normal_motor_on_flag>
    304a:	91 11       	cpse	r25, r1
    304c:	2c c0       	rjmp	.+88     	; 0x30a6 <smart_sensing+0x158>
    304e:	90 91 6c 42 	lds	r25, 0x426C	; 0x80426c <foot_switch_press_count>
    3052:	91 11       	cpse	r25, r1
    3054:	28 c0       	rjmp	.+80     	; 0x30a6 <smart_sensing+0x158>
    3056:	90 91 70 42 	lds	r25, 0x4270	; 0x804270 <foot_switch_release_flag>
    305a:	91 11       	cpse	r25, r1
    305c:	24 c0       	rjmp	.+72     	; 0x30a6 <smart_sensing+0x158>
    305e:	40 91 a2 42 	lds	r20, 0x42A2	; 0x8042a2 <millis>
    3062:	50 91 a3 42 	lds	r21, 0x42A3	; 0x8042a3 <millis+0x1>
    3066:	60 91 a4 42 	lds	r22, 0x42A4	; 0x8042a4 <millis+0x2>
    306a:	70 91 a5 42 	lds	r23, 0x42A5	; 0x8042a5 <millis+0x3>
    306e:	00 91 61 42 	lds	r16, 0x4261	; 0x804261 <smart_switch_timmer>
    3072:	10 91 62 42 	lds	r17, 0x4262	; 0x804262 <smart_switch_timmer+0x1>
    3076:	20 91 63 42 	lds	r18, 0x4263	; 0x804263 <smart_switch_timmer+0x2>
    307a:	30 91 64 42 	lds	r19, 0x4264	; 0x804264 <smart_switch_timmer+0x3>
    307e:	40 1b       	sub	r20, r16
    3080:	51 0b       	sbc	r21, r17
    3082:	62 0b       	sbc	r22, r18
    3084:	73 0b       	sbc	r23, r19
    3086:	49 3e       	cpi	r20, 0xE9	; 233
    3088:	53 40       	sbci	r21, 0x03	; 3
    308a:	61 05       	cpc	r22, r1
    308c:	71 05       	cpc	r23, r1
    308e:	58 f0       	brcs	.+22     	; 0x30a6 <smart_sensing+0x158>
    3090:	81 e0       	ldi	r24, 0x01	; 1
    3092:	0e 94 ae 15 	call	0x2b5c	; 0x2b5c <MOTOR_ON_OFF>
    3096:	81 e0       	ldi	r24, 0x01	; 1
    3098:	80 93 6e 42 	sts	0x426E, r24	; 0x80426e <smart_switch_normal_motor_on_flag>
    309c:	10 92 69 42 	sts	0x4269, r1	; 0x804269 <power_save_icon_blink_flag>
    30a0:	80 93 87 42 	sts	0x4287, r24	; 0x804287 <button_motor_on_off_flag>
    30a4:	5d c0       	rjmp	.+186    	; 0x3160 <smart_sensing+0x212>
    30a6:	90 91 70 42 	lds	r25, 0x4270	; 0x804270 <foot_switch_release_flag>
    30aa:	99 23       	and	r25, r25
    30ac:	01 f1       	breq	.+64     	; 0x30ee <smart_sensing+0x1a0>
    30ae:	20 91 6e 42 	lds	r18, 0x426E	; 0x80426e <smart_switch_normal_motor_on_flag>
    30b2:	22 23       	and	r18, r18
    30b4:	e1 f0       	breq	.+56     	; 0x30ee <smart_sensing+0x1a0>
    30b6:	20 91 6c 42 	lds	r18, 0x426C	; 0x80426c <foot_switch_press_count>
    30ba:	22 23       	and	r18, r18
    30bc:	c1 f0       	breq	.+48     	; 0x30ee <smart_sensing+0x1a0>
    30be:	88 23       	and	r24, r24
    30c0:	b1 f0       	breq	.+44     	; 0x30ee <smart_sensing+0x1a0>
    30c2:	80 e0       	ldi	r24, 0x00	; 0
    30c4:	0e 94 ae 15 	call	0x2b5c	; 0x2b5c <MOTOR_ON_OFF>
    30c8:	10 92 6e 42 	sts	0x426E, r1	; 0x80426e <smart_switch_normal_motor_on_flag>
    30cc:	10 92 70 42 	sts	0x4270, r1	; 0x804270 <foot_switch_release_flag>
    30d0:	10 92 71 42 	sts	0x4271, r1	; 0x804271 <foot_switch_press_flag>
    30d4:	10 92 6c 42 	sts	0x426C, r1	; 0x80426c <foot_switch_press_count>
    30d8:	10 92 61 42 	sts	0x4261, r1	; 0x804261 <smart_switch_timmer>
    30dc:	10 92 62 42 	sts	0x4262, r1	; 0x804262 <smart_switch_timmer+0x1>
    30e0:	10 92 63 42 	sts	0x4263, r1	; 0x804263 <smart_switch_timmer+0x2>
    30e4:	10 92 64 42 	sts	0x4264, r1	; 0x804264 <smart_switch_timmer+0x3>
    30e8:	10 92 87 42 	sts	0x4287, r1	; 0x804287 <button_motor_on_off_flag>
    30ec:	39 c0       	rjmp	.+114    	; 0x3160 <smart_sensing+0x212>
    30ee:	81 11       	cpse	r24, r1
    30f0:	06 c0       	rjmp	.+12     	; 0x30fe <smart_sensing+0x1b0>
    30f2:	91 11       	cpse	r25, r1
    30f4:	04 c0       	rjmp	.+8      	; 0x30fe <smart_sensing+0x1b0>
    30f6:	80 91 6c 42 	lds	r24, 0x426C	; 0x80426c <foot_switch_press_count>
    30fa:	88 23       	and	r24, r24
    30fc:	89 f1       	breq	.+98     	; 0x3160 <smart_sensing+0x212>
    30fe:	80 91 6d 42 	lds	r24, 0x426D	; 0x80426d <smart_switch_cont_motor_on_flag>
    3102:	81 11       	cpse	r24, r1
    3104:	2d c0       	rjmp	.+90     	; 0x3160 <smart_sensing+0x212>
    3106:	80 91 6e 42 	lds	r24, 0x426E	; 0x80426e <smart_switch_normal_motor_on_flag>
    310a:	81 11       	cpse	r24, r1
    310c:	29 c0       	rjmp	.+82     	; 0x3160 <smart_sensing+0x212>
    310e:	80 91 a2 42 	lds	r24, 0x42A2	; 0x8042a2 <millis>
    3112:	90 91 a3 42 	lds	r25, 0x42A3	; 0x8042a3 <millis+0x1>
    3116:	a0 91 a4 42 	lds	r26, 0x42A4	; 0x8042a4 <millis+0x2>
    311a:	b0 91 a5 42 	lds	r27, 0x42A5	; 0x8042a5 <millis+0x3>
    311e:	40 91 61 42 	lds	r20, 0x4261	; 0x804261 <smart_switch_timmer>
    3122:	50 91 62 42 	lds	r21, 0x4262	; 0x804262 <smart_switch_timmer+0x1>
    3126:	60 91 63 42 	lds	r22, 0x4263	; 0x804263 <smart_switch_timmer+0x2>
    312a:	70 91 64 42 	lds	r23, 0x4264	; 0x804264 <smart_switch_timmer+0x3>
    312e:	84 1b       	sub	r24, r20
    3130:	95 0b       	sbc	r25, r21
    3132:	a6 0b       	sbc	r26, r22
    3134:	b7 0b       	sbc	r27, r23
    3136:	89 3e       	cpi	r24, 0xE9	; 233
    3138:	93 40       	sbci	r25, 0x03	; 3
    313a:	a1 05       	cpc	r26, r1
    313c:	b1 05       	cpc	r27, r1
    313e:	80 f0       	brcs	.+32     	; 0x3160 <smart_sensing+0x212>
    3140:	10 92 6d 42 	sts	0x426D, r1	; 0x80426d <smart_switch_cont_motor_on_flag>
    3144:	10 92 61 42 	sts	0x4261, r1	; 0x804261 <smart_switch_timmer>
    3148:	10 92 62 42 	sts	0x4262, r1	; 0x804262 <smart_switch_timmer+0x1>
    314c:	10 92 63 42 	sts	0x4263, r1	; 0x804263 <smart_switch_timmer+0x2>
    3150:	10 92 64 42 	sts	0x4264, r1	; 0x804264 <smart_switch_timmer+0x3>
    3154:	10 92 71 42 	sts	0x4271, r1	; 0x804271 <foot_switch_press_flag>
    3158:	10 92 70 42 	sts	0x4270, r1	; 0x804270 <foot_switch_release_flag>
    315c:	10 92 6c 42 	sts	0x426C, r1	; 0x80426c <foot_switch_press_count>
    3160:	1f 91       	pop	r17
    3162:	0f 91       	pop	r16
    3164:	08 95       	ret

00003166 <power_save_protocol>:
    3166:	4f 92       	push	r4
    3168:	5f 92       	push	r5
    316a:	6f 92       	push	r6
    316c:	7f 92       	push	r7
    316e:	8f 92       	push	r8
    3170:	9f 92       	push	r9
    3172:	af 92       	push	r10
    3174:	bf 92       	push	r11
    3176:	cf 92       	push	r12
    3178:	df 92       	push	r13
    317a:	ef 92       	push	r14
    317c:	ff 92       	push	r15
    317e:	80 91 6a 42 	lds	r24, 0x426A	; 0x80426a <power_save_mode_on_flag>
    3182:	88 23       	and	r24, r24
    3184:	09 f4       	brne	.+2      	; 0x3188 <power_save_protocol+0x22>
    3186:	d8 c0       	rjmp	.+432    	; 0x3338 <power_save_protocol+0x1d2>
    3188:	80 91 6d 42 	lds	r24, 0x426D	; 0x80426d <smart_switch_cont_motor_on_flag>
    318c:	81 11       	cpse	r24, r1
    318e:	04 c0       	rjmp	.+8      	; 0x3198 <power_save_protocol+0x32>
    3190:	80 91 87 42 	lds	r24, 0x4287	; 0x804287 <button_motor_on_off_flag>
    3194:	88 23       	and	r24, r24
    3196:	d1 f0       	breq	.+52     	; 0x31cc <power_save_protocol+0x66>
    3198:	80 91 6b 42 	lds	r24, 0x426B	; 0x80426b <power_save_timer_on_flag>
    319c:	81 11       	cpse	r24, r1
    319e:	16 c0       	rjmp	.+44     	; 0x31cc <power_save_protocol+0x66>
    31a0:	81 e0       	ldi	r24, 0x01	; 1
    31a2:	80 93 6b 42 	sts	0x426B, r24	; 0x80426b <power_save_timer_on_flag>
    31a6:	80 91 a2 42 	lds	r24, 0x42A2	; 0x8042a2 <millis>
    31aa:	90 91 a3 42 	lds	r25, 0x42A3	; 0x8042a3 <millis+0x1>
    31ae:	a0 91 a4 42 	lds	r26, 0x42A4	; 0x8042a4 <millis+0x2>
    31b2:	b0 91 a5 42 	lds	r27, 0x42A5	; 0x8042a5 <millis+0x3>
    31b6:	80 93 65 42 	sts	0x4265, r24	; 0x804265 <power_save_motor_on_timmer>
    31ba:	90 93 66 42 	sts	0x4266, r25	; 0x804266 <power_save_motor_on_timmer+0x1>
    31be:	a0 93 67 42 	sts	0x4267, r26	; 0x804267 <power_save_motor_on_timmer+0x2>
    31c2:	b0 93 68 42 	sts	0x4268, r27	; 0x804268 <power_save_motor_on_timmer+0x3>
    31c6:	10 92 69 42 	sts	0x4269, r1	; 0x804269 <power_save_icon_blink_flag>
    31ca:	b6 c0       	rjmp	.+364    	; 0x3338 <power_save_protocol+0x1d2>
    31cc:	80 91 6b 42 	lds	r24, 0x426B	; 0x80426b <power_save_timer_on_flag>
    31d0:	88 23       	and	r24, r24
    31d2:	e1 f1       	breq	.+120    	; 0x324c <power_save_protocol+0xe6>
    31d4:	40 91 a2 42 	lds	r20, 0x42A2	; 0x8042a2 <millis>
    31d8:	50 91 a3 42 	lds	r21, 0x42A3	; 0x8042a3 <millis+0x1>
    31dc:	60 91 a4 42 	lds	r22, 0x42A4	; 0x8042a4 <millis+0x2>
    31e0:	70 91 a5 42 	lds	r23, 0x42A5	; 0x8042a5 <millis+0x3>
    31e4:	c0 90 65 42 	lds	r12, 0x4265	; 0x804265 <power_save_motor_on_timmer>
    31e8:	d0 90 66 42 	lds	r13, 0x4266	; 0x804266 <power_save_motor_on_timmer+0x1>
    31ec:	e0 90 67 42 	lds	r14, 0x4267	; 0x804267 <power_save_motor_on_timmer+0x2>
    31f0:	f0 90 68 42 	lds	r15, 0x4268	; 0x804268 <power_save_motor_on_timmer+0x3>
    31f4:	4c 19       	sub	r20, r12
    31f6:	5d 09       	sbc	r21, r13
    31f8:	6e 09       	sbc	r22, r14
    31fa:	7f 09       	sbc	r23, r15
    31fc:	41 34       	cpi	r20, 0x41	; 65
    31fe:	57 47       	sbci	r21, 0x77	; 119
    3200:	6b 41       	sbci	r22, 0x1B	; 27
    3202:	71 05       	cpc	r23, r1
    3204:	18 f1       	brcs	.+70     	; 0x324c <power_save_protocol+0xe6>
    3206:	80 e0       	ldi	r24, 0x00	; 0
    3208:	0e 94 ae 15 	call	0x2b5c	; 0x2b5c <MOTOR_ON_OFF>
    320c:	10 92 6b 42 	sts	0x426B, r1	; 0x80426b <power_save_timer_on_flag>
    3210:	10 92 65 42 	sts	0x4265, r1	; 0x804265 <power_save_motor_on_timmer>
    3214:	10 92 66 42 	sts	0x4266, r1	; 0x804266 <power_save_motor_on_timmer+0x1>
    3218:	10 92 67 42 	sts	0x4267, r1	; 0x804267 <power_save_motor_on_timmer+0x2>
    321c:	10 92 68 42 	sts	0x4268, r1	; 0x804268 <power_save_motor_on_timmer+0x3>
    3220:	10 92 6d 42 	sts	0x426D, r1	; 0x80426d <smart_switch_cont_motor_on_flag>
    3224:	10 92 61 42 	sts	0x4261, r1	; 0x804261 <smart_switch_timmer>
    3228:	10 92 62 42 	sts	0x4262, r1	; 0x804262 <smart_switch_timmer+0x1>
    322c:	10 92 63 42 	sts	0x4263, r1	; 0x804263 <smart_switch_timmer+0x2>
    3230:	10 92 64 42 	sts	0x4264, r1	; 0x804264 <smart_switch_timmer+0x3>
    3234:	10 92 71 42 	sts	0x4271, r1	; 0x804271 <foot_switch_press_flag>
    3238:	10 92 70 42 	sts	0x4270, r1	; 0x804270 <foot_switch_release_flag>
    323c:	10 92 6c 42 	sts	0x426C, r1	; 0x80426c <foot_switch_press_count>
    3240:	81 e0       	ldi	r24, 0x01	; 1
    3242:	80 93 69 42 	sts	0x4269, r24	; 0x804269 <power_save_icon_blink_flag>
    3246:	10 92 87 42 	sts	0x4287, r1	; 0x804287 <button_motor_on_off_flag>
    324a:	76 c0       	rjmp	.+236    	; 0x3338 <power_save_protocol+0x1d2>
    324c:	88 23       	and	r24, r24
    324e:	09 f4       	brne	.+2      	; 0x3252 <power_save_protocol+0xec>
    3250:	73 c0       	rjmp	.+230    	; 0x3338 <power_save_protocol+0x1d2>
    3252:	c0 90 a2 42 	lds	r12, 0x42A2	; 0x8042a2 <millis>
    3256:	d0 90 a3 42 	lds	r13, 0x42A3	; 0x8042a3 <millis+0x1>
    325a:	e0 90 a4 42 	lds	r14, 0x42A4	; 0x8042a4 <millis+0x2>
    325e:	f0 90 a5 42 	lds	r15, 0x42A5	; 0x8042a5 <millis+0x3>
    3262:	40 90 65 42 	lds	r4, 0x4265	; 0x804265 <power_save_motor_on_timmer>
    3266:	50 90 66 42 	lds	r5, 0x4266	; 0x804266 <power_save_motor_on_timmer+0x1>
    326a:	60 90 67 42 	lds	r6, 0x4267	; 0x804267 <power_save_motor_on_timmer+0x2>
    326e:	70 90 68 42 	lds	r7, 0x4268	; 0x804268 <power_save_motor_on_timmer+0x3>
    3272:	d7 01       	movw	r26, r14
    3274:	c6 01       	movw	r24, r12
    3276:	84 19       	sub	r24, r4
    3278:	95 09       	sbc	r25, r5
    327a:	a6 09       	sbc	r26, r6
    327c:	b7 09       	sbc	r27, r7
    327e:	80 34       	cpi	r24, 0x40	; 64
    3280:	97 47       	sbci	r25, 0x77	; 119
    3282:	ab 41       	sbci	r26, 0x1B	; 27
    3284:	b1 05       	cpc	r27, r1
    3286:	08 f0       	brcs	.+2      	; 0x328a <power_save_protocol+0x124>
    3288:	57 c0       	rjmp	.+174    	; 0x3338 <power_save_protocol+0x1d2>
    328a:	80 90 ae 42 	lds	r8, 0x42AE	; 0x8042ae <currentPressure>
    328e:	90 90 af 42 	lds	r9, 0x42AF	; 0x8042af <currentPressure+0x1>
    3292:	a0 90 b0 42 	lds	r10, 0x42B0	; 0x8042b0 <currentPressure+0x2>
    3296:	b0 90 b1 42 	lds	r11, 0x42B1	; 0x8042b1 <currentPressure+0x3>
    329a:	a5 01       	movw	r20, r10
    329c:	94 01       	movw	r18, r8
    329e:	60 91 b2 42 	lds	r22, 0x42B2	; 0x8042b2 <previous_pressure>
    32a2:	70 91 b3 42 	lds	r23, 0x42B3	; 0x8042b3 <previous_pressure+0x1>
    32a6:	80 91 b4 42 	lds	r24, 0x42B4	; 0x8042b4 <previous_pressure+0x2>
    32aa:	90 91 b5 42 	lds	r25, 0x42B5	; 0x8042b5 <previous_pressure+0x3>
    32ae:	0e 94 b7 29 	call	0x536e	; 0x536e <__subsf3>
    32b2:	0e 94 9b 2a 	call	0x5536	; 0x5536 <__fixsfsi>
    32b6:	9b 01       	movw	r18, r22
    32b8:	77 23       	and	r23, r23
    32ba:	24 f4       	brge	.+8      	; 0x32c4 <power_save_protocol+0x15e>
    32bc:	22 27       	eor	r18, r18
    32be:	33 27       	eor	r19, r19
    32c0:	26 1b       	sub	r18, r22
    32c2:	37 0b       	sbc	r19, r23
    32c4:	b9 01       	movw	r22, r18
    32c6:	33 0f       	add	r19, r19
    32c8:	88 0b       	sbc	r24, r24
    32ca:	99 0b       	sbc	r25, r25
    32cc:	0e 94 d3 2a 	call	0x55a6	; 0x55a6 <__floatsisf>
    32d0:	20 91 aa 42 	lds	r18, 0x42AA	; 0x8042aa <allowedPressureDifference>
    32d4:	30 91 ab 42 	lds	r19, 0x42AB	; 0x8042ab <allowedPressureDifference+0x1>
    32d8:	40 91 ac 42 	lds	r20, 0x42AC	; 0x8042ac <allowedPressureDifference+0x2>
    32dc:	50 91 ad 42 	lds	r21, 0x42AD	; 0x8042ad <allowedPressureDifference+0x3>
    32e0:	0e 94 83 2b 	call	0x5706	; 0x5706 <__gesf2>
    32e4:	18 16       	cp	r1, r24
    32e6:	6c f4       	brge	.+26     	; 0x3302 <power_save_protocol+0x19c>
    32e8:	c4 14       	cp	r12, r4
    32ea:	d5 04       	cpc	r13, r5
    32ec:	e6 04       	cpc	r14, r6
    32ee:	f7 04       	cpc	r15, r7
    32f0:	41 f0       	breq	.+16     	; 0x3302 <power_save_protocol+0x19c>
    32f2:	c0 92 65 42 	sts	0x4265, r12	; 0x804265 <power_save_motor_on_timmer>
    32f6:	d0 92 66 42 	sts	0x4266, r13	; 0x804266 <power_save_motor_on_timmer+0x1>
    32fa:	e0 92 67 42 	sts	0x4267, r14	; 0x804267 <power_save_motor_on_timmer+0x2>
    32fe:	f0 92 68 42 	sts	0x4268, r15	; 0x804268 <power_save_motor_on_timmer+0x3>
    3302:	80 91 a6 42 	lds	r24, 0x42A6	; 0x8042a6 <currentMillis>
    3306:	90 91 a7 42 	lds	r25, 0x42A7	; 0x8042a7 <currentMillis+0x1>
    330a:	a0 91 a8 42 	lds	r26, 0x42A8	; 0x8042a8 <currentMillis+0x2>
    330e:	b0 91 a9 42 	lds	r27, 0x42A9	; 0x8042a9 <currentMillis+0x3>
    3312:	c8 1a       	sub	r12, r24
    3314:	d9 0a       	sbc	r13, r25
    3316:	ea 0a       	sbc	r14, r26
    3318:	fb 0a       	sbc	r15, r27
    331a:	89 ee       	ldi	r24, 0xE9	; 233
    331c:	c8 16       	cp	r12, r24
    331e:	83 e0       	ldi	r24, 0x03	; 3
    3320:	d8 06       	cpc	r13, r24
    3322:	e1 04       	cpc	r14, r1
    3324:	f1 04       	cpc	r15, r1
    3326:	40 f0       	brcs	.+16     	; 0x3338 <power_save_protocol+0x1d2>
    3328:	80 92 b2 42 	sts	0x42B2, r8	; 0x8042b2 <previous_pressure>
    332c:	90 92 b3 42 	sts	0x42B3, r9	; 0x8042b3 <previous_pressure+0x1>
    3330:	a0 92 b4 42 	sts	0x42B4, r10	; 0x8042b4 <previous_pressure+0x2>
    3334:	b0 92 b5 42 	sts	0x42B5, r11	; 0x8042b5 <previous_pressure+0x3>
    3338:	ff 90       	pop	r15
    333a:	ef 90       	pop	r14
    333c:	df 90       	pop	r13
    333e:	cf 90       	pop	r12
    3340:	bf 90       	pop	r11
    3342:	af 90       	pop	r10
    3344:	9f 90       	pop	r9
    3346:	8f 90       	pop	r8
    3348:	7f 90       	pop	r7
    334a:	6f 90       	pop	r6
    334c:	5f 90       	pop	r5
    334e:	4f 90       	pop	r4
    3350:	08 95       	ret

00003352 <foot_switch_sensing>:
    3352:	80 91 71 42 	lds	r24, 0x4271	; 0x804271 <foot_switch_press_flag>
    3356:	88 23       	and	r24, r24
    3358:	59 f0       	breq	.+22     	; 0x3370 <foot_switch_sensing+0x1e>
    335a:	81 e0       	ldi	r24, 0x01	; 1
    335c:	0e 94 ae 15 	call	0x2b5c	; 0x2b5c <MOTOR_ON_OFF>
    3360:	10 92 71 42 	sts	0x4271, r1	; 0x804271 <foot_switch_press_flag>
    3364:	10 92 69 42 	sts	0x4269, r1	; 0x804269 <power_save_icon_blink_flag>
    3368:	81 e0       	ldi	r24, 0x01	; 1
    336a:	80 93 87 42 	sts	0x4287, r24	; 0x804287 <button_motor_on_off_flag>
    336e:	08 95       	ret
    3370:	80 91 70 42 	lds	r24, 0x4270	; 0x804270 <foot_switch_release_flag>
    3374:	88 23       	and	r24, r24
    3376:	39 f0       	breq	.+14     	; 0x3386 <foot_switch_sensing+0x34>
    3378:	80 e0       	ldi	r24, 0x00	; 0
    337a:	0e 94 ae 15 	call	0x2b5c	; 0x2b5c <MOTOR_ON_OFF>
    337e:	10 92 70 42 	sts	0x4270, r1	; 0x804270 <foot_switch_release_flag>
    3382:	10 92 87 42 	sts	0x4287, r1	; 0x804287 <button_motor_on_off_flag>
    3386:	08 95       	ret

00003388 <foot_switch_main>:
    3388:	0e 94 83 17 	call	0x2f06	; 0x2f06 <foot_switch_detect_check>
    338c:	88 23       	and	r24, r24
    338e:	59 f0       	breq	.+22     	; 0x33a6 <foot_switch_main+0x1e>
    3390:	80 91 8a 42 	lds	r24, 0x428A	; 0x80428a <smart_switch_mode_flag>
    3394:	88 23       	and	r24, r24
    3396:	19 f0       	breq	.+6      	; 0x339e <foot_switch_main+0x16>
    3398:	0e 94 a7 17 	call	0x2f4e	; 0x2f4e <smart_sensing>
    339c:	08 95       	ret
    339e:	81 11       	cpse	r24, r1
    33a0:	02 c0       	rjmp	.+4      	; 0x33a6 <foot_switch_main+0x1e>
    33a2:	0e 94 a9 19 	call	0x3352	; 0x3352 <foot_switch_sensing>
    33a6:	08 95       	ret

000033a8 <NTC_init>:
    33a8:	0e 94 be 10 	call	0x217c	; 0x217c <ADC0_init>
    33ac:	08 95       	ret

000033ae <read_ntc>:
    33ae:	cf 93       	push	r28
    33b0:	c0 e0       	ldi	r28, 0x00	; 0
    33b2:	18 c0       	rjmp	.+48     	; 0x33e4 <read_ntc+0x36>
    33b4:	82 e0       	ldi	r24, 0x02	; 2
    33b6:	0e 94 cb 10 	call	0x2196	; 0x2196 <ADC0_read>
    33ba:	40 91 7e 42 	lds	r20, 0x427E	; 0x80427e <ntc_raw_adc>
    33be:	50 91 7f 42 	lds	r21, 0x427F	; 0x80427f <ntc_raw_adc+0x1>
    33c2:	60 91 80 42 	lds	r22, 0x4280	; 0x804280 <ntc_raw_adc+0x2>
    33c6:	70 91 81 42 	lds	r23, 0x4281	; 0x804281 <ntc_raw_adc+0x3>
    33ca:	48 0f       	add	r20, r24
    33cc:	59 1f       	adc	r21, r25
    33ce:	61 1d       	adc	r22, r1
    33d0:	71 1d       	adc	r23, r1
    33d2:	40 93 7e 42 	sts	0x427E, r20	; 0x80427e <ntc_raw_adc>
    33d6:	50 93 7f 42 	sts	0x427F, r21	; 0x80427f <ntc_raw_adc+0x1>
    33da:	60 93 80 42 	sts	0x4280, r22	; 0x804280 <ntc_raw_adc+0x2>
    33de:	70 93 81 42 	sts	0x4281, r23	; 0x804281 <ntc_raw_adc+0x3>
    33e2:	cf 5f       	subi	r28, 0xFF	; 255
    33e4:	c4 31       	cpi	r28, 0x14	; 20
    33e6:	30 f3       	brcs	.-52     	; 0x33b4 <read_ntc+0x6>
    33e8:	2c 2f       	mov	r18, r28
    33ea:	30 e0       	ldi	r19, 0x00	; 0
    33ec:	40 e0       	ldi	r20, 0x00	; 0
    33ee:	50 e0       	ldi	r21, 0x00	; 0
    33f0:	60 91 7e 42 	lds	r22, 0x427E	; 0x80427e <ntc_raw_adc>
    33f4:	70 91 7f 42 	lds	r23, 0x427F	; 0x80427f <ntc_raw_adc+0x1>
    33f8:	80 91 80 42 	lds	r24, 0x4280	; 0x804280 <ntc_raw_adc+0x2>
    33fc:	90 91 81 42 	lds	r25, 0x4281	; 0x804281 <ntc_raw_adc+0x3>
    3400:	0e 94 09 2c 	call	0x5812	; 0x5812 <__udivmodsi4>
    3404:	20 93 7e 42 	sts	0x427E, r18	; 0x80427e <ntc_raw_adc>
    3408:	30 93 7f 42 	sts	0x427F, r19	; 0x80427f <ntc_raw_adc+0x1>
    340c:	40 93 80 42 	sts	0x4280, r20	; 0x804280 <ntc_raw_adc+0x2>
    3410:	50 93 81 42 	sts	0x4281, r21	; 0x804281 <ntc_raw_adc+0x3>
    3414:	ca 01       	movw	r24, r20
    3416:	b9 01       	movw	r22, r18
    3418:	0e 94 d1 2a 	call	0x55a2	; 0x55a2 <__floatunsisf>
    341c:	23 e3       	ldi	r18, 0x33	; 51
    341e:	33 e3       	ldi	r19, 0x33	; 51
    3420:	43 e5       	ldi	r20, 0x53	; 83
    3422:	50 e4       	ldi	r21, 0x40	; 64
    3424:	0e 94 88 2b 	call	0x5710	; 0x5710 <__mulsf3>
    3428:	20 e0       	ldi	r18, 0x00	; 0
    342a:	36 ef       	ldi	r19, 0xF6	; 246
    342c:	4f e1       	ldi	r20, 0x1F	; 31
    342e:	57 e4       	ldi	r21, 0x47	; 71
    3430:	0e 94 29 2a 	call	0x5452	; 0x5452 <__divsf3>
    3434:	60 93 82 42 	sts	0x4282, r22	; 0x804282 <voltage>
    3438:	70 93 83 42 	sts	0x4283, r23	; 0x804283 <voltage+0x1>
    343c:	80 93 84 42 	sts	0x4284, r24	; 0x804284 <voltage+0x2>
    3440:	90 93 85 42 	sts	0x4285, r25	; 0x804285 <voltage+0x3>
    3444:	60 e0       	ldi	r22, 0x00	; 0
    3446:	70 e0       	ldi	r23, 0x00	; 0
    3448:	cb 01       	movw	r24, r22
    344a:	cf 91       	pop	r28
    344c:	08 95       	ret

0000344e <TCB1_init>:
    344e:	8f eb       	ldi	r24, 0xBF	; 191
    3450:	9d e5       	ldi	r25, 0x5D	; 93
    3452:	80 93 1c 0b 	sts	0x0B1C, r24	; 0x800b1c <__TEXT_REGION_LENGTH__+0x7e0b1c>
    3456:	90 93 1d 0b 	sts	0x0B1D, r25	; 0x800b1d <__TEXT_REGION_LENGTH__+0x7e0b1d>
    345a:	e1 e1       	ldi	r30, 0x11	; 17
    345c:	fb e0       	ldi	r31, 0x0B	; 11
    345e:	80 81       	ld	r24, Z
    3460:	80 83       	st	Z, r24
    3462:	e5 e1       	ldi	r30, 0x15	; 21
    3464:	fb e0       	ldi	r31, 0x0B	; 11
    3466:	80 81       	ld	r24, Z
    3468:	81 60       	ori	r24, 0x01	; 1
    346a:	80 83       	st	Z, r24
    346c:	e0 e1       	ldi	r30, 0x10	; 16
    346e:	fb e0       	ldi	r31, 0x0B	; 11
    3470:	80 81       	ld	r24, Z
    3472:	81 60       	ori	r24, 0x01	; 1
    3474:	80 83       	st	Z, r24
    3476:	08 95       	ret

00003478 <TCB2_init>:
    3478:	8f eb       	ldi	r24, 0xBF	; 191
    347a:	9d e5       	ldi	r25, 0x5D	; 93
    347c:	80 93 2c 0b 	sts	0x0B2C, r24	; 0x800b2c <__TEXT_REGION_LENGTH__+0x7e0b2c>
    3480:	90 93 2d 0b 	sts	0x0B2D, r25	; 0x800b2d <__TEXT_REGION_LENGTH__+0x7e0b2d>
    3484:	e1 e2       	ldi	r30, 0x21	; 33
    3486:	fb e0       	ldi	r31, 0x0B	; 11
    3488:	80 81       	ld	r24, Z
    348a:	80 83       	st	Z, r24
    348c:	e5 e2       	ldi	r30, 0x25	; 37
    348e:	fb e0       	ldi	r31, 0x0B	; 11
    3490:	80 81       	ld	r24, Z
    3492:	81 60       	ori	r24, 0x01	; 1
    3494:	80 83       	st	Z, r24
    3496:	e0 e2       	ldi	r30, 0x20	; 32
    3498:	fb e0       	ldi	r31, 0x0B	; 11
    349a:	80 81       	ld	r24, Z
    349c:	81 60       	ori	r24, 0x01	; 1
    349e:	80 83       	st	Z, r24
    34a0:	08 95       	ret

000034a2 <timmer_init>:
    34a2:	0e 94 27 1a 	call	0x344e	; 0x344e <TCB1_init>
    34a6:	0e 94 3c 1a 	call	0x3478	; 0x3478 <TCB2_init>
    34aa:	08 95       	ret

000034ac <__vector_13>:
    34ac:	1f 92       	push	r1
    34ae:	0f 92       	push	r0
    34b0:	0f b6       	in	r0, 0x3f	; 63
    34b2:	0f 92       	push	r0
    34b4:	11 24       	eor	r1, r1
    34b6:	0b b6       	in	r0, 0x3b	; 59
    34b8:	0f 92       	push	r0
    34ba:	8f 93       	push	r24
    34bc:	9f 93       	push	r25
    34be:	af 93       	push	r26
    34c0:	bf 93       	push	r27
    34c2:	ef 93       	push	r30
    34c4:	ff 93       	push	r31
    34c6:	80 91 16 0b 	lds	r24, 0x0B16	; 0x800b16 <__TEXT_REGION_LENGTH__+0x7e0b16>
    34ca:	80 ff       	sbrs	r24, 0
    34cc:	18 c0       	rjmp	.+48     	; 0x34fe <__vector_13+0x52>
    34ce:	80 91 a2 42 	lds	r24, 0x42A2	; 0x8042a2 <millis>
    34d2:	90 91 a3 42 	lds	r25, 0x42A3	; 0x8042a3 <millis+0x1>
    34d6:	a0 91 a4 42 	lds	r26, 0x42A4	; 0x8042a4 <millis+0x2>
    34da:	b0 91 a5 42 	lds	r27, 0x42A5	; 0x8042a5 <millis+0x3>
    34de:	01 96       	adiw	r24, 0x01	; 1
    34e0:	a1 1d       	adc	r26, r1
    34e2:	b1 1d       	adc	r27, r1
    34e4:	80 93 a2 42 	sts	0x42A2, r24	; 0x8042a2 <millis>
    34e8:	90 93 a3 42 	sts	0x42A3, r25	; 0x8042a3 <millis+0x1>
    34ec:	a0 93 a4 42 	sts	0x42A4, r26	; 0x8042a4 <millis+0x2>
    34f0:	b0 93 a5 42 	sts	0x42A5, r27	; 0x8042a5 <millis+0x3>
    34f4:	e6 e1       	ldi	r30, 0x16	; 22
    34f6:	fb e0       	ldi	r31, 0x0B	; 11
    34f8:	80 81       	ld	r24, Z
    34fa:	81 60       	ori	r24, 0x01	; 1
    34fc:	80 83       	st	Z, r24
    34fe:	ff 91       	pop	r31
    3500:	ef 91       	pop	r30
    3502:	bf 91       	pop	r27
    3504:	af 91       	pop	r26
    3506:	9f 91       	pop	r25
    3508:	8f 91       	pop	r24
    350a:	0f 90       	pop	r0
    350c:	0b be       	out	0x3b, r0	; 59
    350e:	0f 90       	pop	r0
    3510:	0f be       	out	0x3f, r0	; 63
    3512:	0f 90       	pop	r0
    3514:	1f 90       	pop	r1
    3516:	18 95       	reti

00003518 <__vector_30>:
    3518:	1f 92       	push	r1
    351a:	0f 92       	push	r0
    351c:	0f b6       	in	r0, 0x3f	; 63
    351e:	0f 92       	push	r0
    3520:	11 24       	eor	r1, r1
    3522:	0b b6       	in	r0, 0x3b	; 59
    3524:	0f 92       	push	r0
    3526:	0f 93       	push	r16
    3528:	1f 93       	push	r17
    352a:	2f 93       	push	r18
    352c:	3f 93       	push	r19
    352e:	4f 93       	push	r20
    3530:	5f 93       	push	r21
    3532:	6f 93       	push	r22
    3534:	7f 93       	push	r23
    3536:	8f 93       	push	r24
    3538:	9f 93       	push	r25
    353a:	af 93       	push	r26
    353c:	bf 93       	push	r27
    353e:	ef 93       	push	r30
    3540:	ff 93       	push	r31
    3542:	40 91 9e 42 	lds	r20, 0x429E	; 0x80429e <millis1>
    3546:	50 91 9f 42 	lds	r21, 0x429F	; 0x80429f <millis1+0x1>
    354a:	60 91 a0 42 	lds	r22, 0x42A0	; 0x8042a0 <millis1+0x2>
    354e:	70 91 a1 42 	lds	r23, 0x42A1	; 0x8042a1 <millis1+0x3>
    3552:	4f 5f       	subi	r20, 0xFF	; 255
    3554:	5f 4f       	sbci	r21, 0xFF	; 255
    3556:	6f 4f       	sbci	r22, 0xFF	; 255
    3558:	7f 4f       	sbci	r23, 0xFF	; 255
    355a:	40 93 9e 42 	sts	0x429E, r20	; 0x80429e <millis1>
    355e:	50 93 9f 42 	sts	0x429F, r21	; 0x80429f <millis1+0x1>
    3562:	60 93 a0 42 	sts	0x42A0, r22	; 0x8042a0 <millis1+0x2>
    3566:	70 93 a1 42 	sts	0x42A1, r23	; 0x8042a1 <millis1+0x3>
    356a:	80 91 9a 42 	lds	r24, 0x429A	; 0x80429a <millis2>
    356e:	90 91 9b 42 	lds	r25, 0x429B	; 0x80429b <millis2+0x1>
    3572:	a0 91 9c 42 	lds	r26, 0x429C	; 0x80429c <millis2+0x2>
    3576:	b0 91 9d 42 	lds	r27, 0x429D	; 0x80429d <millis2+0x3>
    357a:	01 96       	adiw	r24, 0x01	; 1
    357c:	a1 1d       	adc	r26, r1
    357e:	b1 1d       	adc	r27, r1
    3580:	80 93 9a 42 	sts	0x429A, r24	; 0x80429a <millis2>
    3584:	90 93 9b 42 	sts	0x429B, r25	; 0x80429b <millis2+0x1>
    3588:	a0 93 9c 42 	sts	0x429C, r26	; 0x80429c <millis2+0x2>
    358c:	b0 93 9d 42 	sts	0x429D, r27	; 0x80429d <millis2+0x3>
    3590:	00 91 96 42 	lds	r16, 0x4296	; 0x804296 <millis3>
    3594:	10 91 97 42 	lds	r17, 0x4297	; 0x804297 <millis3+0x1>
    3598:	20 91 98 42 	lds	r18, 0x4298	; 0x804298 <millis3+0x2>
    359c:	30 91 99 42 	lds	r19, 0x4299	; 0x804299 <millis3+0x3>
    35a0:	0f 5f       	subi	r16, 0xFF	; 255
    35a2:	1f 4f       	sbci	r17, 0xFF	; 255
    35a4:	2f 4f       	sbci	r18, 0xFF	; 255
    35a6:	3f 4f       	sbci	r19, 0xFF	; 255
    35a8:	00 93 96 42 	sts	0x4296, r16	; 0x804296 <millis3>
    35ac:	10 93 97 42 	sts	0x4297, r17	; 0x804297 <millis3+0x1>
    35b0:	20 93 98 42 	sts	0x4298, r18	; 0x804298 <millis3+0x2>
    35b4:	30 93 99 42 	sts	0x4299, r19	; 0x804299 <millis3+0x3>
    35b8:	49 3e       	cpi	r20, 0xE9	; 233
    35ba:	53 40       	sbci	r21, 0x03	; 3
    35bc:	61 05       	cpc	r22, r1
    35be:	71 05       	cpc	r23, r1
    35c0:	58 f0       	brcs	.+22     	; 0x35d8 <__vector_30+0xc0>
    35c2:	21 e0       	ldi	r18, 0x01	; 1
    35c4:	20 93 91 42 	sts	0x4291, r18	; 0x804291 <_1sec>
    35c8:	10 92 9e 42 	sts	0x429E, r1	; 0x80429e <millis1>
    35cc:	10 92 9f 42 	sts	0x429F, r1	; 0x80429f <millis1+0x1>
    35d0:	10 92 a0 42 	sts	0x42A0, r1	; 0x8042a0 <millis1+0x2>
    35d4:	10 92 a1 42 	sts	0x42A1, r1	; 0x8042a1 <millis1+0x3>
    35d8:	89 3c       	cpi	r24, 0xC9	; 201
    35da:	91 05       	cpc	r25, r1
    35dc:	a1 05       	cpc	r26, r1
    35de:	b1 05       	cpc	r27, r1
    35e0:	58 f0       	brcs	.+22     	; 0x35f8 <__vector_30+0xe0>
    35e2:	81 e0       	ldi	r24, 0x01	; 1
    35e4:	80 93 90 42 	sts	0x4290, r24	; 0x804290 <_300sec>
    35e8:	10 92 9a 42 	sts	0x429A, r1	; 0x80429a <millis2>
    35ec:	10 92 9b 42 	sts	0x429B, r1	; 0x80429b <millis2+0x1>
    35f0:	10 92 9c 42 	sts	0x429C, r1	; 0x80429c <millis2+0x2>
    35f4:	10 92 9d 42 	sts	0x429D, r1	; 0x80429d <millis2+0x3>
    35f8:	e6 e2       	ldi	r30, 0x26	; 38
    35fa:	fb e0       	ldi	r31, 0x0B	; 11
    35fc:	80 81       	ld	r24, Z
    35fe:	81 60       	ori	r24, 0x01	; 1
    3600:	80 83       	st	Z, r24
    3602:	ff 91       	pop	r31
    3604:	ef 91       	pop	r30
    3606:	bf 91       	pop	r27
    3608:	af 91       	pop	r26
    360a:	9f 91       	pop	r25
    360c:	8f 91       	pop	r24
    360e:	7f 91       	pop	r23
    3610:	6f 91       	pop	r22
    3612:	5f 91       	pop	r21
    3614:	4f 91       	pop	r20
    3616:	3f 91       	pop	r19
    3618:	2f 91       	pop	r18
    361a:	1f 91       	pop	r17
    361c:	0f 91       	pop	r16
    361e:	0f 90       	pop	r0
    3620:	0b be       	out	0x3b, r0	; 59
    3622:	0f 90       	pop	r0
    3624:	0f be       	out	0x3f, r0	; 63
    3626:	0f 90       	pop	r0
    3628:	1f 90       	pop	r1
    362a:	18 95       	reti

0000362c <clear_all_keypad_flags>:
    362c:	10 92 89 42 	sts	0x4289, r1	; 0x804289 <unit_button_pressed_flag>
    3630:	10 92 6a 42 	sts	0x426A, r1	; 0x80426a <power_save_mode_on_flag>
    3634:	10 92 86 42 	sts	0x4286, r1	; 0x804286 <play_pause_button_press_flag>
    3638:	10 92 8a 42 	sts	0x428A, r1	; 0x80428a <smart_switch_mode_flag>
    363c:	10 92 88 42 	sts	0x4288, r1	; 0x804288 <speed_button_press_flag>
    3640:	08 95       	ret

00003642 <clear_all_lpm_flags>:
    3642:	10 92 50 42 	sts	0x4250, r1	; 0x804250 <lpm60_flag>
    3646:	10 92 51 42 	sts	0x4251, r1	; 0x804251 <lpm50_flag>
    364a:	10 92 52 42 	sts	0x4252, r1	; 0x804252 <lpm40_flag>
    364e:	10 92 53 42 	sts	0x4253, r1	; 0x804253 <lpm30_flag>
    3652:	10 92 54 42 	sts	0x4254, r1	; 0x804254 <lpm20_flag>
    3656:	08 95       	ret

00003658 <pwm_change>:
    3658:	0f 93       	push	r16
    365a:	80 91 88 42 	lds	r24, 0x4288	; 0x804288 <speed_button_press_flag>
    365e:	88 23       	and	r24, r24
    3660:	09 f4       	brne	.+2      	; 0x3664 <pwm_change+0xc>
    3662:	e7 c1       	rjmp	.+974    	; 0x3a32 <pwm_change+0x3da>
    3664:	80 91 08 40 	lds	r24, 0x4008	; 0x804008 <unit_mode_pwm>
    3668:	8f 5f       	subi	r24, 0xFF	; 255
    366a:	80 93 08 40 	sts	0x4008, r24	; 0x804008 <unit_mode_pwm>
    366e:	86 30       	cpi	r24, 0x06	; 6
    3670:	18 f0       	brcs	.+6      	; 0x3678 <pwm_change+0x20>
    3672:	81 e0       	ldi	r24, 0x01	; 1
    3674:	80 93 08 40 	sts	0x4008, r24	; 0x804008 <unit_mode_pwm>
    3678:	80 91 08 40 	lds	r24, 0x4008	; 0x804008 <unit_mode_pwm>
    367c:	83 30       	cpi	r24, 0x03	; 3
    367e:	09 f4       	brne	.+2      	; 0x3682 <pwm_change+0x2a>
    3680:	b6 c0       	rjmp	.+364    	; 0x37ee <pwm_change+0x196>
    3682:	30 f4       	brcc	.+12     	; 0x3690 <pwm_change+0x38>
    3684:	81 30       	cpi	r24, 0x01	; 1
    3686:	59 f0       	breq	.+22     	; 0x369e <pwm_change+0x46>
    3688:	82 30       	cpi	r24, 0x02	; 2
    368a:	09 f4       	brne	.+2      	; 0x368e <pwm_change+0x36>
    368c:	5c c0       	rjmp	.+184    	; 0x3746 <pwm_change+0xee>
    368e:	ab c1       	rjmp	.+854    	; 0x39e6 <pwm_change+0x38e>
    3690:	84 30       	cpi	r24, 0x04	; 4
    3692:	09 f4       	brne	.+2      	; 0x3696 <pwm_change+0x3e>
    3694:	00 c1       	rjmp	.+512    	; 0x3896 <pwm_change+0x23e>
    3696:	85 30       	cpi	r24, 0x05	; 5
    3698:	09 f4       	brne	.+2      	; 0x369c <pwm_change+0x44>
    369a:	51 c1       	rjmp	.+674    	; 0x393e <pwm_change+0x2e6>
    369c:	a4 c1       	rjmp	.+840    	; 0x39e6 <pwm_change+0x38e>
    369e:	80 91 87 42 	lds	r24, 0x4287	; 0x804287 <button_motor_on_off_flag>
    36a2:	81 11       	cpse	r24, r1
    36a4:	04 c0       	rjmp	.+8      	; 0x36ae <pwm_change+0x56>
    36a6:	80 91 5b 42 	lds	r24, 0x425B	; 0x80425b <countRunTime>
    36aa:	88 23       	and	r24, r24
    36ac:	59 f0       	breq	.+22     	; 0x36c4 <pwm_change+0x6c>
    36ae:	e0 e0       	ldi	r30, 0x00	; 0
    36b0:	fa e0       	ldi	r31, 0x0A	; 10
    36b2:	80 81       	ld	r24, Z
    36b4:	81 60       	ori	r24, 0x01	; 1
    36b6:	80 83       	st	Z, r24
    36b8:	80 91 11 40 	lds	r24, 0x4011	; 0x804011 <LPM_20>
    36bc:	90 91 12 40 	lds	r25, 0x4012	; 0x804012 <LPM_20+0x1>
    36c0:	80 a7       	std	Z+40, r24	; 0x28
    36c2:	91 a7       	std	Z+41, r25	; 0x29
    36c4:	8e ea       	ldi	r24, 0xAE	; 174
    36c6:	90 e1       	ldi	r25, 0x10	; 16
    36c8:	80 93 79 42 	sts	0x4279, r24	; 0x804279 <pressure_blockage>
    36cc:	90 93 7a 42 	sts	0x427A, r25	; 0x80427a <pressure_blockage+0x1>
    36d0:	80 91 11 40 	lds	r24, 0x4011	; 0x804011 <LPM_20>
    36d4:	90 91 12 40 	lds	r25, 0x4012	; 0x804012 <LPM_20+0x1>
    36d8:	80 93 55 42 	sts	0x4255, r24	; 0x804255 <Duty_cycle>
    36dc:	90 93 56 42 	sts	0x4256, r25	; 0x804256 <Duty_cycle+0x1>
    36e0:	80 91 13 40 	lds	r24, 0x4013	; 0x804013 <value_ok_flag>
    36e4:	81 11       	cpse	r24, r1
    36e6:	13 c0       	rjmp	.+38     	; 0x370e <pwm_change+0xb6>
    36e8:	80 91 5f 42 	lds	r24, 0x425F	; 0x80425f <return_val>
    36ec:	90 91 60 42 	lds	r25, 0x4260	; 0x804260 <return_val+0x1>
    36f0:	80 93 55 42 	sts	0x4255, r24	; 0x804255 <Duty_cycle>
    36f4:	90 93 56 42 	sts	0x4256, r25	; 0x804256 <Duty_cycle+0x1>
    36f8:	e0 e0       	ldi	r30, 0x00	; 0
    36fa:	fa e0       	ldi	r31, 0x0A	; 10
    36fc:	80 81       	ld	r24, Z
    36fe:	81 60       	ori	r24, 0x01	; 1
    3700:	80 83       	st	Z, r24
    3702:	80 91 5f 42 	lds	r24, 0x425F	; 0x80425f <return_val>
    3706:	90 91 60 42 	lds	r25, 0x4260	; 0x804260 <return_val+0x1>
    370a:	80 a7       	std	Z+40, r24	; 0x28
    370c:	91 a7       	std	Z+41, r25	; 0x29
    370e:	0e 94 21 1b 	call	0x3642	; 0x3642 <clear_all_lpm_flags>
    3712:	81 e0       	ldi	r24, 0x01	; 1
    3714:	80 93 54 42 	sts	0x4254, r24	; 0x804254 <lpm20_flag>
    3718:	08 e2       	ldi	r16, 0x28	; 40
    371a:	21 e3       	ldi	r18, 0x31	; 49
    371c:	43 ec       	ldi	r20, 0xC3	; 195
    371e:	57 e1       	ldi	r21, 0x17	; 23
    3720:	68 e2       	ldi	r22, 0x28	; 40
    3722:	85 e3       	ldi	r24, 0x35	; 53
    3724:	0e 94 b9 12 	call	0x2572	; 0x2572 <print_icon>
    3728:	21 e3       	ldi	r18, 0x31	; 49
    372a:	48 eb       	ldi	r20, 0xB8	; 184
    372c:	58 e1       	ldi	r21, 0x18	; 24
    372e:	68 e2       	ldi	r22, 0x28	; 40
    3730:	82 e4       	ldi	r24, 0x42	; 66
    3732:	0e 94 b9 12 	call	0x2572	; 0x2572 <print_icon>
    3736:	2f e0       	ldi	r18, 0x0F	; 15
    3738:	45 e1       	ldi	r20, 0x15	; 21
    373a:	5b e1       	ldi	r21, 0x1B	; 27
    373c:	6f e5       	ldi	r22, 0x5F	; 95
    373e:	82 e4       	ldi	r24, 0x42	; 66
    3740:	0e 94 b9 12 	call	0x2572	; 0x2572 <print_icon>
    3744:	73 c1       	rjmp	.+742    	; 0x3a2c <pwm_change+0x3d4>
    3746:	80 91 87 42 	lds	r24, 0x4287	; 0x804287 <button_motor_on_off_flag>
    374a:	81 11       	cpse	r24, r1
    374c:	04 c0       	rjmp	.+8      	; 0x3756 <pwm_change+0xfe>
    374e:	80 91 5b 42 	lds	r24, 0x425B	; 0x80425b <countRunTime>
    3752:	88 23       	and	r24, r24
    3754:	59 f0       	breq	.+22     	; 0x376c <pwm_change+0x114>
    3756:	e0 e0       	ldi	r30, 0x00	; 0
    3758:	fa e0       	ldi	r31, 0x0A	; 10
    375a:	80 81       	ld	r24, Z
    375c:	81 60       	ori	r24, 0x01	; 1
    375e:	80 83       	st	Z, r24
    3760:	80 91 0f 40 	lds	r24, 0x400F	; 0x80400f <LPM_30>
    3764:	90 91 10 40 	lds	r25, 0x4010	; 0x804010 <LPM_30+0x1>
    3768:	80 a7       	std	Z+40, r24	; 0x28
    376a:	91 a7       	std	Z+41, r25	; 0x29
    376c:	8c ec       	ldi	r24, 0xCC	; 204
    376e:	90 e1       	ldi	r25, 0x10	; 16
    3770:	80 93 79 42 	sts	0x4279, r24	; 0x804279 <pressure_blockage>
    3774:	90 93 7a 42 	sts	0x427A, r25	; 0x80427a <pressure_blockage+0x1>
    3778:	80 91 0f 40 	lds	r24, 0x400F	; 0x80400f <LPM_30>
    377c:	90 91 10 40 	lds	r25, 0x4010	; 0x804010 <LPM_30+0x1>
    3780:	80 93 55 42 	sts	0x4255, r24	; 0x804255 <Duty_cycle>
    3784:	90 93 56 42 	sts	0x4256, r25	; 0x804256 <Duty_cycle+0x1>
    3788:	80 91 13 40 	lds	r24, 0x4013	; 0x804013 <value_ok_flag>
    378c:	81 11       	cpse	r24, r1
    378e:	13 c0       	rjmp	.+38     	; 0x37b6 <pwm_change+0x15e>
    3790:	80 91 5f 42 	lds	r24, 0x425F	; 0x80425f <return_val>
    3794:	90 91 60 42 	lds	r25, 0x4260	; 0x804260 <return_val+0x1>
    3798:	80 93 55 42 	sts	0x4255, r24	; 0x804255 <Duty_cycle>
    379c:	90 93 56 42 	sts	0x4256, r25	; 0x804256 <Duty_cycle+0x1>
    37a0:	e0 e0       	ldi	r30, 0x00	; 0
    37a2:	fa e0       	ldi	r31, 0x0A	; 10
    37a4:	80 81       	ld	r24, Z
    37a6:	81 60       	ori	r24, 0x01	; 1
    37a8:	80 83       	st	Z, r24
    37aa:	80 91 5f 42 	lds	r24, 0x425F	; 0x80425f <return_val>
    37ae:	90 91 60 42 	lds	r25, 0x4260	; 0x804260 <return_val+0x1>
    37b2:	80 a7       	std	Z+40, r24	; 0x28
    37b4:	91 a7       	std	Z+41, r25	; 0x29
    37b6:	0e 94 21 1b 	call	0x3642	; 0x3642 <clear_all_lpm_flags>
    37ba:	81 e0       	ldi	r24, 0x01	; 1
    37bc:	80 93 53 42 	sts	0x4253, r24	; 0x804253 <lpm30_flag>
    37c0:	08 e2       	ldi	r16, 0x28	; 40
    37c2:	21 e3       	ldi	r18, 0x31	; 49
    37c4:	4e ec       	ldi	r20, 0xCE	; 206
    37c6:	56 e1       	ldi	r21, 0x16	; 22
    37c8:	68 e2       	ldi	r22, 0x28	; 40
    37ca:	85 e3       	ldi	r24, 0x35	; 53
    37cc:	0e 94 b9 12 	call	0x2572	; 0x2572 <print_icon>
    37d0:	21 e3       	ldi	r18, 0x31	; 49
    37d2:	48 eb       	ldi	r20, 0xB8	; 184
    37d4:	58 e1       	ldi	r21, 0x18	; 24
    37d6:	68 e2       	ldi	r22, 0x28	; 40
    37d8:	82 e4       	ldi	r24, 0x42	; 66
    37da:	0e 94 b9 12 	call	0x2572	; 0x2572 <print_icon>
    37de:	2f e0       	ldi	r18, 0x0F	; 15
    37e0:	45 e1       	ldi	r20, 0x15	; 21
    37e2:	5b e1       	ldi	r21, 0x1B	; 27
    37e4:	6f e5       	ldi	r22, 0x5F	; 95
    37e6:	82 e4       	ldi	r24, 0x42	; 66
    37e8:	0e 94 b9 12 	call	0x2572	; 0x2572 <print_icon>
    37ec:	1f c1       	rjmp	.+574    	; 0x3a2c <pwm_change+0x3d4>
    37ee:	80 91 87 42 	lds	r24, 0x4287	; 0x804287 <button_motor_on_off_flag>
    37f2:	81 11       	cpse	r24, r1
    37f4:	04 c0       	rjmp	.+8      	; 0x37fe <pwm_change+0x1a6>
    37f6:	80 91 5b 42 	lds	r24, 0x425B	; 0x80425b <countRunTime>
    37fa:	88 23       	and	r24, r24
    37fc:	59 f0       	breq	.+22     	; 0x3814 <pwm_change+0x1bc>
    37fe:	e0 e0       	ldi	r30, 0x00	; 0
    3800:	fa e0       	ldi	r31, 0x0A	; 10
    3802:	80 81       	ld	r24, Z
    3804:	81 60       	ori	r24, 0x01	; 1
    3806:	80 83       	st	Z, r24
    3808:	80 91 0d 40 	lds	r24, 0x400D	; 0x80400d <LPM_40>
    380c:	90 91 0e 40 	lds	r25, 0x400E	; 0x80400e <LPM_40+0x1>
    3810:	80 a7       	std	Z+40, r24	; 0x28
    3812:	91 a7       	std	Z+41, r25	; 0x29
    3814:	8c ec       	ldi	r24, 0xCC	; 204
    3816:	90 e1       	ldi	r25, 0x10	; 16
    3818:	80 93 79 42 	sts	0x4279, r24	; 0x804279 <pressure_blockage>
    381c:	90 93 7a 42 	sts	0x427A, r25	; 0x80427a <pressure_blockage+0x1>
    3820:	80 91 0d 40 	lds	r24, 0x400D	; 0x80400d <LPM_40>
    3824:	90 91 0e 40 	lds	r25, 0x400E	; 0x80400e <LPM_40+0x1>
    3828:	80 93 55 42 	sts	0x4255, r24	; 0x804255 <Duty_cycle>
    382c:	90 93 56 42 	sts	0x4256, r25	; 0x804256 <Duty_cycle+0x1>
    3830:	80 91 13 40 	lds	r24, 0x4013	; 0x804013 <value_ok_flag>
    3834:	81 11       	cpse	r24, r1
    3836:	13 c0       	rjmp	.+38     	; 0x385e <pwm_change+0x206>
    3838:	80 91 5f 42 	lds	r24, 0x425F	; 0x80425f <return_val>
    383c:	90 91 60 42 	lds	r25, 0x4260	; 0x804260 <return_val+0x1>
    3840:	80 93 55 42 	sts	0x4255, r24	; 0x804255 <Duty_cycle>
    3844:	90 93 56 42 	sts	0x4256, r25	; 0x804256 <Duty_cycle+0x1>
    3848:	e0 e0       	ldi	r30, 0x00	; 0
    384a:	fa e0       	ldi	r31, 0x0A	; 10
    384c:	80 81       	ld	r24, Z
    384e:	81 60       	ori	r24, 0x01	; 1
    3850:	80 83       	st	Z, r24
    3852:	80 91 5f 42 	lds	r24, 0x425F	; 0x80425f <return_val>
    3856:	90 91 60 42 	lds	r25, 0x4260	; 0x804260 <return_val+0x1>
    385a:	80 a7       	std	Z+40, r24	; 0x28
    385c:	91 a7       	std	Z+41, r25	; 0x29
    385e:	0e 94 21 1b 	call	0x3642	; 0x3642 <clear_all_lpm_flags>
    3862:	81 e0       	ldi	r24, 0x01	; 1
    3864:	80 93 52 42 	sts	0x4252, r24	; 0x804252 <lpm40_flag>
    3868:	08 e2       	ldi	r16, 0x28	; 40
    386a:	21 e3       	ldi	r18, 0x31	; 49
    386c:	49 ed       	ldi	r20, 0xD9	; 217
    386e:	55 e1       	ldi	r21, 0x15	; 21
    3870:	68 e2       	ldi	r22, 0x28	; 40
    3872:	85 e3       	ldi	r24, 0x35	; 53
    3874:	0e 94 b9 12 	call	0x2572	; 0x2572 <print_icon>
    3878:	21 e3       	ldi	r18, 0x31	; 49
    387a:	48 eb       	ldi	r20, 0xB8	; 184
    387c:	58 e1       	ldi	r21, 0x18	; 24
    387e:	68 e2       	ldi	r22, 0x28	; 40
    3880:	82 e4       	ldi	r24, 0x42	; 66
    3882:	0e 94 b9 12 	call	0x2572	; 0x2572 <print_icon>
    3886:	2f e0       	ldi	r18, 0x0F	; 15
    3888:	45 e1       	ldi	r20, 0x15	; 21
    388a:	5b e1       	ldi	r21, 0x1B	; 27
    388c:	6f e5       	ldi	r22, 0x5F	; 95
    388e:	82 e4       	ldi	r24, 0x42	; 66
    3890:	0e 94 b9 12 	call	0x2572	; 0x2572 <print_icon>
    3894:	cb c0       	rjmp	.+406    	; 0x3a2c <pwm_change+0x3d4>
    3896:	80 91 87 42 	lds	r24, 0x4287	; 0x804287 <button_motor_on_off_flag>
    389a:	81 11       	cpse	r24, r1
    389c:	04 c0       	rjmp	.+8      	; 0x38a6 <pwm_change+0x24e>
    389e:	80 91 5b 42 	lds	r24, 0x425B	; 0x80425b <countRunTime>
    38a2:	88 23       	and	r24, r24
    38a4:	59 f0       	breq	.+22     	; 0x38bc <pwm_change+0x264>
    38a6:	e0 e0       	ldi	r30, 0x00	; 0
    38a8:	fa e0       	ldi	r31, 0x0A	; 10
    38aa:	80 81       	ld	r24, Z
    38ac:	81 60       	ori	r24, 0x01	; 1
    38ae:	80 83       	st	Z, r24
    38b0:	80 91 0b 40 	lds	r24, 0x400B	; 0x80400b <LPM_50>
    38b4:	90 91 0c 40 	lds	r25, 0x400C	; 0x80400c <LPM_50+0x1>
    38b8:	80 a7       	std	Z+40, r24	; 0x28
    38ba:	91 a7       	std	Z+41, r25	; 0x29
    38bc:	83 e0       	ldi	r24, 0x03	; 3
    38be:	91 e1       	ldi	r25, 0x11	; 17
    38c0:	80 93 79 42 	sts	0x4279, r24	; 0x804279 <pressure_blockage>
    38c4:	90 93 7a 42 	sts	0x427A, r25	; 0x80427a <pressure_blockage+0x1>
    38c8:	80 91 0b 40 	lds	r24, 0x400B	; 0x80400b <LPM_50>
    38cc:	90 91 0c 40 	lds	r25, 0x400C	; 0x80400c <LPM_50+0x1>
    38d0:	80 93 55 42 	sts	0x4255, r24	; 0x804255 <Duty_cycle>
    38d4:	90 93 56 42 	sts	0x4256, r25	; 0x804256 <Duty_cycle+0x1>
    38d8:	80 91 13 40 	lds	r24, 0x4013	; 0x804013 <value_ok_flag>
    38dc:	81 11       	cpse	r24, r1
    38de:	13 c0       	rjmp	.+38     	; 0x3906 <pwm_change+0x2ae>
    38e0:	80 91 5f 42 	lds	r24, 0x425F	; 0x80425f <return_val>
    38e4:	90 91 60 42 	lds	r25, 0x4260	; 0x804260 <return_val+0x1>
    38e8:	80 93 55 42 	sts	0x4255, r24	; 0x804255 <Duty_cycle>
    38ec:	90 93 56 42 	sts	0x4256, r25	; 0x804256 <Duty_cycle+0x1>
    38f0:	e0 e0       	ldi	r30, 0x00	; 0
    38f2:	fa e0       	ldi	r31, 0x0A	; 10
    38f4:	80 81       	ld	r24, Z
    38f6:	81 60       	ori	r24, 0x01	; 1
    38f8:	80 83       	st	Z, r24
    38fa:	80 91 5f 42 	lds	r24, 0x425F	; 0x80425f <return_val>
    38fe:	90 91 60 42 	lds	r25, 0x4260	; 0x804260 <return_val+0x1>
    3902:	80 a7       	std	Z+40, r24	; 0x28
    3904:	91 a7       	std	Z+41, r25	; 0x29
    3906:	0e 94 21 1b 	call	0x3642	; 0x3642 <clear_all_lpm_flags>
    390a:	81 e0       	ldi	r24, 0x01	; 1
    390c:	80 93 51 42 	sts	0x4251, r24	; 0x804251 <lpm50_flag>
    3910:	08 e2       	ldi	r16, 0x28	; 40
    3912:	21 e3       	ldi	r18, 0x31	; 49
    3914:	44 ee       	ldi	r20, 0xE4	; 228
    3916:	54 e1       	ldi	r21, 0x14	; 20
    3918:	68 e2       	ldi	r22, 0x28	; 40
    391a:	85 e3       	ldi	r24, 0x35	; 53
    391c:	0e 94 b9 12 	call	0x2572	; 0x2572 <print_icon>
    3920:	21 e3       	ldi	r18, 0x31	; 49
    3922:	48 eb       	ldi	r20, 0xB8	; 184
    3924:	58 e1       	ldi	r21, 0x18	; 24
    3926:	68 e2       	ldi	r22, 0x28	; 40
    3928:	82 e4       	ldi	r24, 0x42	; 66
    392a:	0e 94 b9 12 	call	0x2572	; 0x2572 <print_icon>
    392e:	2f e0       	ldi	r18, 0x0F	; 15
    3930:	45 e1       	ldi	r20, 0x15	; 21
    3932:	5b e1       	ldi	r21, 0x1B	; 27
    3934:	6f e5       	ldi	r22, 0x5F	; 95
    3936:	82 e4       	ldi	r24, 0x42	; 66
    3938:	0e 94 b9 12 	call	0x2572	; 0x2572 <print_icon>
    393c:	77 c0       	rjmp	.+238    	; 0x3a2c <pwm_change+0x3d4>
    393e:	80 91 87 42 	lds	r24, 0x4287	; 0x804287 <button_motor_on_off_flag>
    3942:	81 11       	cpse	r24, r1
    3944:	04 c0       	rjmp	.+8      	; 0x394e <pwm_change+0x2f6>
    3946:	80 91 5b 42 	lds	r24, 0x425B	; 0x80425b <countRunTime>
    394a:	88 23       	and	r24, r24
    394c:	59 f0       	breq	.+22     	; 0x3964 <pwm_change+0x30c>
    394e:	e0 e0       	ldi	r30, 0x00	; 0
    3950:	fa e0       	ldi	r31, 0x0A	; 10
    3952:	80 81       	ld	r24, Z
    3954:	81 60       	ori	r24, 0x01	; 1
    3956:	80 83       	st	Z, r24
    3958:	80 91 09 40 	lds	r24, 0x4009	; 0x804009 <LPM_60>
    395c:	90 91 0a 40 	lds	r25, 0x400A	; 0x80400a <LPM_60+0x1>
    3960:	80 a7       	std	Z+40, r24	; 0x28
    3962:	91 a7       	std	Z+41, r25	; 0x29
    3964:	86 e2       	ldi	r24, 0x26	; 38
    3966:	91 e1       	ldi	r25, 0x11	; 17
    3968:	80 93 79 42 	sts	0x4279, r24	; 0x804279 <pressure_blockage>
    396c:	90 93 7a 42 	sts	0x427A, r25	; 0x80427a <pressure_blockage+0x1>
    3970:	80 91 09 40 	lds	r24, 0x4009	; 0x804009 <LPM_60>
    3974:	90 91 0a 40 	lds	r25, 0x400A	; 0x80400a <LPM_60+0x1>
    3978:	80 93 55 42 	sts	0x4255, r24	; 0x804255 <Duty_cycle>
    397c:	90 93 56 42 	sts	0x4256, r25	; 0x804256 <Duty_cycle+0x1>
    3980:	80 91 13 40 	lds	r24, 0x4013	; 0x804013 <value_ok_flag>
    3984:	81 11       	cpse	r24, r1
    3986:	13 c0       	rjmp	.+38     	; 0x39ae <pwm_change+0x356>
    3988:	80 91 5f 42 	lds	r24, 0x425F	; 0x80425f <return_val>
    398c:	90 91 60 42 	lds	r25, 0x4260	; 0x804260 <return_val+0x1>
    3990:	80 93 55 42 	sts	0x4255, r24	; 0x804255 <Duty_cycle>
    3994:	90 93 56 42 	sts	0x4256, r25	; 0x804256 <Duty_cycle+0x1>
    3998:	e0 e0       	ldi	r30, 0x00	; 0
    399a:	fa e0       	ldi	r31, 0x0A	; 10
    399c:	80 81       	ld	r24, Z
    399e:	81 60       	ori	r24, 0x01	; 1
    39a0:	80 83       	st	Z, r24
    39a2:	80 91 5f 42 	lds	r24, 0x425F	; 0x80425f <return_val>
    39a6:	90 91 60 42 	lds	r25, 0x4260	; 0x804260 <return_val+0x1>
    39aa:	80 a7       	std	Z+40, r24	; 0x28
    39ac:	91 a7       	std	Z+41, r25	; 0x29
    39ae:	0e 94 21 1b 	call	0x3642	; 0x3642 <clear_all_lpm_flags>
    39b2:	81 e0       	ldi	r24, 0x01	; 1
    39b4:	80 93 50 42 	sts	0x4250, r24	; 0x804250 <lpm60_flag>
    39b8:	08 e2       	ldi	r16, 0x28	; 40
    39ba:	21 e3       	ldi	r18, 0x31	; 49
    39bc:	4f ee       	ldi	r20, 0xEF	; 239
    39be:	53 e1       	ldi	r21, 0x13	; 19
    39c0:	68 e2       	ldi	r22, 0x28	; 40
    39c2:	85 e3       	ldi	r24, 0x35	; 53
    39c4:	0e 94 b9 12 	call	0x2572	; 0x2572 <print_icon>
    39c8:	21 e3       	ldi	r18, 0x31	; 49
    39ca:	48 eb       	ldi	r20, 0xB8	; 184
    39cc:	58 e1       	ldi	r21, 0x18	; 24
    39ce:	68 e2       	ldi	r22, 0x28	; 40
    39d0:	82 e4       	ldi	r24, 0x42	; 66
    39d2:	0e 94 b9 12 	call	0x2572	; 0x2572 <print_icon>
    39d6:	2f e0       	ldi	r18, 0x0F	; 15
    39d8:	45 e1       	ldi	r20, 0x15	; 21
    39da:	5b e1       	ldi	r21, 0x1B	; 27
    39dc:	6f e5       	ldi	r22, 0x5F	; 95
    39de:	82 e4       	ldi	r24, 0x42	; 66
    39e0:	0e 94 b9 12 	call	0x2572	; 0x2572 <print_icon>
    39e4:	23 c0       	rjmp	.+70     	; 0x3a2c <pwm_change+0x3d4>
    39e6:	80 91 11 40 	lds	r24, 0x4011	; 0x804011 <LPM_20>
    39ea:	90 91 12 40 	lds	r25, 0x4012	; 0x804012 <LPM_20+0x1>
    39ee:	80 93 55 42 	sts	0x4255, r24	; 0x804255 <Duty_cycle>
    39f2:	90 93 56 42 	sts	0x4256, r25	; 0x804256 <Duty_cycle+0x1>
    39f6:	0e 94 21 1b 	call	0x3642	; 0x3642 <clear_all_lpm_flags>
    39fa:	81 e0       	ldi	r24, 0x01	; 1
    39fc:	80 93 54 42 	sts	0x4254, r24	; 0x804254 <lpm20_flag>
    3a00:	08 e2       	ldi	r16, 0x28	; 40
    3a02:	21 e3       	ldi	r18, 0x31	; 49
    3a04:	43 ec       	ldi	r20, 0xC3	; 195
    3a06:	57 e1       	ldi	r21, 0x17	; 23
    3a08:	68 e2       	ldi	r22, 0x28	; 40
    3a0a:	85 e3       	ldi	r24, 0x35	; 53
    3a0c:	0e 94 b9 12 	call	0x2572	; 0x2572 <print_icon>
    3a10:	21 e3       	ldi	r18, 0x31	; 49
    3a12:	48 eb       	ldi	r20, 0xB8	; 184
    3a14:	58 e1       	ldi	r21, 0x18	; 24
    3a16:	68 e2       	ldi	r22, 0x28	; 40
    3a18:	82 e4       	ldi	r24, 0x42	; 66
    3a1a:	0e 94 b9 12 	call	0x2572	; 0x2572 <print_icon>
    3a1e:	2f e0       	ldi	r18, 0x0F	; 15
    3a20:	45 e1       	ldi	r20, 0x15	; 21
    3a22:	5b e1       	ldi	r21, 0x1B	; 27
    3a24:	6f e5       	ldi	r22, 0x5F	; 95
    3a26:	82 e4       	ldi	r24, 0x42	; 66
    3a28:	0e 94 b9 12 	call	0x2572	; 0x2572 <print_icon>
    3a2c:	10 92 88 42 	sts	0x4288, r1	; 0x804288 <speed_button_press_flag>
    3a30:	fd c0       	rjmp	.+506    	; 0x3c2c <pwm_change+0x5d4>
    3a32:	88 23       	and	r24, r24
    3a34:	09 f4       	brne	.+2      	; 0x3a38 <pwm_change+0x3e0>
    3a36:	fa c0       	rjmp	.+500    	; 0x3c2c <pwm_change+0x5d4>
    3a38:	80 91 87 42 	lds	r24, 0x4287	; 0x804287 <button_motor_on_off_flag>
    3a3c:	81 11       	cpse	r24, r1
    3a3e:	0d c0       	rjmp	.+26     	; 0x3a5a <pwm_change+0x402>
    3a40:	80 91 5b 42 	lds	r24, 0x425B	; 0x80425b <countRunTime>
    3a44:	81 11       	cpse	r24, r1
    3a46:	09 c0       	rjmp	.+18     	; 0x3a5a <pwm_change+0x402>
    3a48:	80 91 6a 42 	lds	r24, 0x426A	; 0x80426a <power_save_mode_on_flag>
    3a4c:	81 11       	cpse	r24, r1
    3a4e:	05 c0       	rjmp	.+10     	; 0x3a5a <pwm_change+0x402>
    3a50:	80 91 8a 42 	lds	r24, 0x428A	; 0x80428a <smart_switch_mode_flag>
    3a54:	88 23       	and	r24, r24
    3a56:	09 f4       	brne	.+2      	; 0x3a5a <pwm_change+0x402>
    3a58:	e9 c0       	rjmp	.+466    	; 0x3c2c <pwm_change+0x5d4>
    3a5a:	80 91 08 40 	lds	r24, 0x4008	; 0x804008 <unit_mode_pwm>
    3a5e:	8f 5f       	subi	r24, 0xFF	; 255
    3a60:	80 93 08 40 	sts	0x4008, r24	; 0x804008 <unit_mode_pwm>
    3a64:	86 30       	cpi	r24, 0x06	; 6
    3a66:	18 f0       	brcs	.+6      	; 0x3a6e <pwm_change+0x416>
    3a68:	81 e0       	ldi	r24, 0x01	; 1
    3a6a:	80 93 08 40 	sts	0x4008, r24	; 0x804008 <unit_mode_pwm>
    3a6e:	80 91 08 40 	lds	r24, 0x4008	; 0x804008 <unit_mode_pwm>
    3a72:	83 30       	cpi	r24, 0x03	; 3
    3a74:	09 f4       	brne	.+2      	; 0x3a78 <pwm_change+0x420>
    3a76:	51 c0       	rjmp	.+162    	; 0x3b1a <pwm_change+0x4c2>
    3a78:	28 f4       	brcc	.+10     	; 0x3a84 <pwm_change+0x42c>
    3a7a:	81 30       	cpi	r24, 0x01	; 1
    3a7c:	51 f0       	breq	.+20     	; 0x3a92 <pwm_change+0x43a>
    3a7e:	82 30       	cpi	r24, 0x02	; 2
    3a80:	51 f1       	breq	.+84     	; 0x3ad6 <pwm_change+0x47e>
    3a82:	b1 c0       	rjmp	.+354    	; 0x3be6 <pwm_change+0x58e>
    3a84:	84 30       	cpi	r24, 0x04	; 4
    3a86:	09 f4       	brne	.+2      	; 0x3a8a <pwm_change+0x432>
    3a88:	6a c0       	rjmp	.+212    	; 0x3b5e <pwm_change+0x506>
    3a8a:	85 30       	cpi	r24, 0x05	; 5
    3a8c:	09 f4       	brne	.+2      	; 0x3a90 <pwm_change+0x438>
    3a8e:	89 c0       	rjmp	.+274    	; 0x3ba2 <pwm_change+0x54a>
    3a90:	aa c0       	rjmp	.+340    	; 0x3be6 <pwm_change+0x58e>
    3a92:	e0 e0       	ldi	r30, 0x00	; 0
    3a94:	fa e0       	ldi	r31, 0x0A	; 10
    3a96:	80 81       	ld	r24, Z
    3a98:	81 60       	ori	r24, 0x01	; 1
    3a9a:	80 83       	st	Z, r24
    3a9c:	80 91 11 40 	lds	r24, 0x4011	; 0x804011 <LPM_20>
    3aa0:	90 91 12 40 	lds	r25, 0x4012	; 0x804012 <LPM_20+0x1>
    3aa4:	80 a7       	std	Z+40, r24	; 0x28
    3aa6:	91 a7       	std	Z+41, r25	; 0x29
    3aa8:	08 e2       	ldi	r16, 0x28	; 40
    3aaa:	21 e3       	ldi	r18, 0x31	; 49
    3aac:	43 ec       	ldi	r20, 0xC3	; 195
    3aae:	57 e1       	ldi	r21, 0x17	; 23
    3ab0:	68 e2       	ldi	r22, 0x28	; 40
    3ab2:	85 e3       	ldi	r24, 0x35	; 53
    3ab4:	0e 94 b9 12 	call	0x2572	; 0x2572 <print_icon>
    3ab8:	21 e3       	ldi	r18, 0x31	; 49
    3aba:	48 eb       	ldi	r20, 0xB8	; 184
    3abc:	58 e1       	ldi	r21, 0x18	; 24
    3abe:	68 e2       	ldi	r22, 0x28	; 40
    3ac0:	82 e4       	ldi	r24, 0x42	; 66
    3ac2:	0e 94 b9 12 	call	0x2572	; 0x2572 <print_icon>
    3ac6:	2f e0       	ldi	r18, 0x0F	; 15
    3ac8:	45 e1       	ldi	r20, 0x15	; 21
    3aca:	5b e1       	ldi	r21, 0x1B	; 27
    3acc:	6f e5       	ldi	r22, 0x5F	; 95
    3ace:	82 e4       	ldi	r24, 0x42	; 66
    3ad0:	0e 94 b9 12 	call	0x2572	; 0x2572 <print_icon>
    3ad4:	a9 c0       	rjmp	.+338    	; 0x3c28 <pwm_change+0x5d0>
    3ad6:	e0 e0       	ldi	r30, 0x00	; 0
    3ad8:	fa e0       	ldi	r31, 0x0A	; 10
    3ada:	80 81       	ld	r24, Z
    3adc:	81 60       	ori	r24, 0x01	; 1
    3ade:	80 83       	st	Z, r24
    3ae0:	80 91 0f 40 	lds	r24, 0x400F	; 0x80400f <LPM_30>
    3ae4:	90 91 10 40 	lds	r25, 0x4010	; 0x804010 <LPM_30+0x1>
    3ae8:	80 a7       	std	Z+40, r24	; 0x28
    3aea:	91 a7       	std	Z+41, r25	; 0x29
    3aec:	08 e2       	ldi	r16, 0x28	; 40
    3aee:	21 e3       	ldi	r18, 0x31	; 49
    3af0:	4e ec       	ldi	r20, 0xCE	; 206
    3af2:	56 e1       	ldi	r21, 0x16	; 22
    3af4:	68 e2       	ldi	r22, 0x28	; 40
    3af6:	85 e3       	ldi	r24, 0x35	; 53
    3af8:	0e 94 b9 12 	call	0x2572	; 0x2572 <print_icon>
    3afc:	21 e3       	ldi	r18, 0x31	; 49
    3afe:	48 eb       	ldi	r20, 0xB8	; 184
    3b00:	58 e1       	ldi	r21, 0x18	; 24
    3b02:	68 e2       	ldi	r22, 0x28	; 40
    3b04:	82 e4       	ldi	r24, 0x42	; 66
    3b06:	0e 94 b9 12 	call	0x2572	; 0x2572 <print_icon>
    3b0a:	2f e0       	ldi	r18, 0x0F	; 15
    3b0c:	45 e1       	ldi	r20, 0x15	; 21
    3b0e:	5b e1       	ldi	r21, 0x1B	; 27
    3b10:	6f e5       	ldi	r22, 0x5F	; 95
    3b12:	82 e4       	ldi	r24, 0x42	; 66
    3b14:	0e 94 b9 12 	call	0x2572	; 0x2572 <print_icon>
    3b18:	87 c0       	rjmp	.+270    	; 0x3c28 <pwm_change+0x5d0>
    3b1a:	e0 e0       	ldi	r30, 0x00	; 0
    3b1c:	fa e0       	ldi	r31, 0x0A	; 10
    3b1e:	80 81       	ld	r24, Z
    3b20:	81 60       	ori	r24, 0x01	; 1
    3b22:	80 83       	st	Z, r24
    3b24:	80 91 0d 40 	lds	r24, 0x400D	; 0x80400d <LPM_40>
    3b28:	90 91 0e 40 	lds	r25, 0x400E	; 0x80400e <LPM_40+0x1>
    3b2c:	80 a7       	std	Z+40, r24	; 0x28
    3b2e:	91 a7       	std	Z+41, r25	; 0x29
    3b30:	08 e2       	ldi	r16, 0x28	; 40
    3b32:	21 e3       	ldi	r18, 0x31	; 49
    3b34:	49 ed       	ldi	r20, 0xD9	; 217
    3b36:	55 e1       	ldi	r21, 0x15	; 21
    3b38:	68 e2       	ldi	r22, 0x28	; 40
    3b3a:	85 e3       	ldi	r24, 0x35	; 53
    3b3c:	0e 94 b9 12 	call	0x2572	; 0x2572 <print_icon>
    3b40:	21 e3       	ldi	r18, 0x31	; 49
    3b42:	48 eb       	ldi	r20, 0xB8	; 184
    3b44:	58 e1       	ldi	r21, 0x18	; 24
    3b46:	68 e2       	ldi	r22, 0x28	; 40
    3b48:	82 e4       	ldi	r24, 0x42	; 66
    3b4a:	0e 94 b9 12 	call	0x2572	; 0x2572 <print_icon>
    3b4e:	2f e0       	ldi	r18, 0x0F	; 15
    3b50:	45 e1       	ldi	r20, 0x15	; 21
    3b52:	5b e1       	ldi	r21, 0x1B	; 27
    3b54:	6f e5       	ldi	r22, 0x5F	; 95
    3b56:	82 e4       	ldi	r24, 0x42	; 66
    3b58:	0e 94 b9 12 	call	0x2572	; 0x2572 <print_icon>
    3b5c:	65 c0       	rjmp	.+202    	; 0x3c28 <pwm_change+0x5d0>
    3b5e:	e0 e0       	ldi	r30, 0x00	; 0
    3b60:	fa e0       	ldi	r31, 0x0A	; 10
    3b62:	80 81       	ld	r24, Z
    3b64:	81 60       	ori	r24, 0x01	; 1
    3b66:	80 83       	st	Z, r24
    3b68:	80 91 0b 40 	lds	r24, 0x400B	; 0x80400b <LPM_50>
    3b6c:	90 91 0c 40 	lds	r25, 0x400C	; 0x80400c <LPM_50+0x1>
    3b70:	80 a7       	std	Z+40, r24	; 0x28
    3b72:	91 a7       	std	Z+41, r25	; 0x29
    3b74:	08 e2       	ldi	r16, 0x28	; 40
    3b76:	21 e3       	ldi	r18, 0x31	; 49
    3b78:	44 ee       	ldi	r20, 0xE4	; 228
    3b7a:	54 e1       	ldi	r21, 0x14	; 20
    3b7c:	68 e2       	ldi	r22, 0x28	; 40
    3b7e:	85 e3       	ldi	r24, 0x35	; 53
    3b80:	0e 94 b9 12 	call	0x2572	; 0x2572 <print_icon>
    3b84:	21 e3       	ldi	r18, 0x31	; 49
    3b86:	48 eb       	ldi	r20, 0xB8	; 184
    3b88:	58 e1       	ldi	r21, 0x18	; 24
    3b8a:	68 e2       	ldi	r22, 0x28	; 40
    3b8c:	82 e4       	ldi	r24, 0x42	; 66
    3b8e:	0e 94 b9 12 	call	0x2572	; 0x2572 <print_icon>
    3b92:	2f e0       	ldi	r18, 0x0F	; 15
    3b94:	45 e1       	ldi	r20, 0x15	; 21
    3b96:	5b e1       	ldi	r21, 0x1B	; 27
    3b98:	6f e5       	ldi	r22, 0x5F	; 95
    3b9a:	82 e4       	ldi	r24, 0x42	; 66
    3b9c:	0e 94 b9 12 	call	0x2572	; 0x2572 <print_icon>
    3ba0:	43 c0       	rjmp	.+134    	; 0x3c28 <pwm_change+0x5d0>
    3ba2:	e0 e0       	ldi	r30, 0x00	; 0
    3ba4:	fa e0       	ldi	r31, 0x0A	; 10
    3ba6:	80 81       	ld	r24, Z
    3ba8:	81 60       	ori	r24, 0x01	; 1
    3baa:	80 83       	st	Z, r24
    3bac:	80 91 09 40 	lds	r24, 0x4009	; 0x804009 <LPM_60>
    3bb0:	90 91 0a 40 	lds	r25, 0x400A	; 0x80400a <LPM_60+0x1>
    3bb4:	80 a7       	std	Z+40, r24	; 0x28
    3bb6:	91 a7       	std	Z+41, r25	; 0x29
    3bb8:	08 e2       	ldi	r16, 0x28	; 40
    3bba:	21 e3       	ldi	r18, 0x31	; 49
    3bbc:	4f ee       	ldi	r20, 0xEF	; 239
    3bbe:	53 e1       	ldi	r21, 0x13	; 19
    3bc0:	68 e2       	ldi	r22, 0x28	; 40
    3bc2:	85 e3       	ldi	r24, 0x35	; 53
    3bc4:	0e 94 b9 12 	call	0x2572	; 0x2572 <print_icon>
    3bc8:	21 e3       	ldi	r18, 0x31	; 49
    3bca:	48 eb       	ldi	r20, 0xB8	; 184
    3bcc:	58 e1       	ldi	r21, 0x18	; 24
    3bce:	68 e2       	ldi	r22, 0x28	; 40
    3bd0:	82 e4       	ldi	r24, 0x42	; 66
    3bd2:	0e 94 b9 12 	call	0x2572	; 0x2572 <print_icon>
    3bd6:	2f e0       	ldi	r18, 0x0F	; 15
    3bd8:	45 e1       	ldi	r20, 0x15	; 21
    3bda:	5b e1       	ldi	r21, 0x1B	; 27
    3bdc:	6f e5       	ldi	r22, 0x5F	; 95
    3bde:	82 e4       	ldi	r24, 0x42	; 66
    3be0:	0e 94 b9 12 	call	0x2572	; 0x2572 <print_icon>
    3be4:	21 c0       	rjmp	.+66     	; 0x3c28 <pwm_change+0x5d0>
    3be6:	80 91 11 40 	lds	r24, 0x4011	; 0x804011 <LPM_20>
    3bea:	90 91 12 40 	lds	r25, 0x4012	; 0x804012 <LPM_20+0x1>
    3bee:	80 93 55 42 	sts	0x4255, r24	; 0x804255 <Duty_cycle>
    3bf2:	90 93 56 42 	sts	0x4256, r25	; 0x804256 <Duty_cycle+0x1>
    3bf6:	81 e0       	ldi	r24, 0x01	; 1
    3bf8:	80 93 54 42 	sts	0x4254, r24	; 0x804254 <lpm20_flag>
    3bfc:	08 e2       	ldi	r16, 0x28	; 40
    3bfe:	21 e3       	ldi	r18, 0x31	; 49
    3c00:	4e ec       	ldi	r20, 0xCE	; 206
    3c02:	56 e1       	ldi	r21, 0x16	; 22
    3c04:	6a e2       	ldi	r22, 0x2A	; 42
    3c06:	85 e3       	ldi	r24, 0x35	; 53
    3c08:	0e 94 b9 12 	call	0x2572	; 0x2572 <print_icon>
    3c0c:	21 e3       	ldi	r18, 0x31	; 49
    3c0e:	48 eb       	ldi	r20, 0xB8	; 184
    3c10:	58 e1       	ldi	r21, 0x18	; 24
    3c12:	68 e2       	ldi	r22, 0x28	; 40
    3c14:	82 e4       	ldi	r24, 0x42	; 66
    3c16:	0e 94 b9 12 	call	0x2572	; 0x2572 <print_icon>
    3c1a:	2f e0       	ldi	r18, 0x0F	; 15
    3c1c:	45 e1       	ldi	r20, 0x15	; 21
    3c1e:	5b e1       	ldi	r21, 0x1B	; 27
    3c20:	6f e5       	ldi	r22, 0x5F	; 95
    3c22:	82 e4       	ldi	r24, 0x42	; 66
    3c24:	0e 94 b9 12 	call	0x2572	; 0x2572 <print_icon>
    3c28:	10 92 88 42 	sts	0x4288, r1	; 0x804288 <speed_button_press_flag>
    3c2c:	0f 91       	pop	r16
    3c2e:	08 95       	ret

00003c30 <keypad_main>:
    3c30:	0e 94 92 15 	call	0x2b24	; 0x2b24 <unit_change>
    3c34:	0e 94 f0 15 	call	0x2be0	; 0x2be0 <play_pause_button_main>
    3c38:	0e 94 2c 1b 	call	0x3658	; 0x3658 <pwm_change>
    3c3c:	08 95       	ret

00003c3e <lcd_all_icon_update>:
    3c3e:	81 e0       	ldi	r24, 0x01	; 1
    3c40:	80 93 78 42 	sts	0x4278, r24	; 0x804278 <update_pressure_flag>
    3c44:	80 93 77 42 	sts	0x4277, r24	; 0x804277 <unit_icon_update_flag>
    3c48:	08 95       	ret

00003c4a <lcd_uc1698u_init>:
    3c4a:	0e 94 1f 1e 	call	0x3c3e	; 0x3c3e <lcd_all_icon_update>
    3c4e:	80 91 c2 42 	lds	r24, 0x42C2	; 0x8042c2 <previous_uc_ams_reset_flag>
    3c52:	88 23       	and	r24, r24
    3c54:	21 f0       	breq	.+8      	; 0x3c5e <lcd_uc1698u_init+0x14>
    3c56:	80 91 c3 42 	lds	r24, 0x42C3	; 0x8042c3 <previous_soft_hard_reset_flag>
    3c5a:	81 11       	cpse	r24, r1
    3c5c:	04 c0       	rjmp	.+8      	; 0x3c66 <lcd_uc1698u_init+0x1c>
    3c5e:	0e 94 6c 11 	call	0x22d8	; 0x22d8 <UC1698U_gpio_init>
    3c62:	0e 94 3b 12 	call	0x2476	; 0x2476 <UC1698U_init>
    3c66:	08 95       	ret

00003c68 <lcd_icon_update>:
    3c68:	80 91 15 40 	lds	r24, 0x4015	; 0x804015 <previous_unit_mode>
    3c6c:	90 91 16 40 	lds	r25, 0x4016	; 0x804016 <unit_mode>
    3c70:	89 17       	cp	r24, r25
    3c72:	49 f0       	breq	.+18     	; 0x3c86 <lcd_icon_update+0x1e>
    3c74:	81 e0       	ldi	r24, 0x01	; 1
    3c76:	80 93 78 42 	sts	0x4278, r24	; 0x804278 <update_pressure_flag>
    3c7a:	80 93 76 42 	sts	0x4276, r24	; 0x804276 <update_bar_flag>
    3c7e:	80 93 77 42 	sts	0x4277, r24	; 0x804277 <unit_icon_update_flag>
    3c82:	90 93 15 40 	sts	0x4015, r25	; 0x804015 <previous_unit_mode>
    3c86:	90 91 75 42 	lds	r25, 0x4275	; 0x804275 <previous_power_save_mode_flag>
    3c8a:	80 91 6a 42 	lds	r24, 0x426A	; 0x80426a <power_save_mode_on_flag>
    3c8e:	98 17       	cp	r25, r24
    3c90:	29 f0       	breq	.+10     	; 0x3c9c <lcd_icon_update+0x34>
    3c92:	80 93 75 42 	sts	0x4275, r24	; 0x804275 <previous_power_save_mode_flag>
    3c96:	81 e0       	ldi	r24, 0x01	; 1
    3c98:	80 93 14 40 	sts	0x4014, r24	; 0x804014 <update_power_save_icon_flag>
    3c9c:	80 91 91 42 	lds	r24, 0x4291	; 0x804291 <_1sec>
    3ca0:	88 23       	and	r24, r24
    3ca2:	81 f0       	breq	.+32     	; 0x3cc4 <lcd_icon_update+0x5c>
    3ca4:	81 e0       	ldi	r24, 0x01	; 1
    3ca6:	80 93 78 42 	sts	0x4278, r24	; 0x804278 <update_pressure_flag>
    3caa:	80 91 8a 42 	lds	r24, 0x428A	; 0x80428a <smart_switch_mode_flag>
    3cae:	81 11       	cpse	r24, r1
    3cb0:	04 c0       	rjmp	.+8      	; 0x3cba <lcd_icon_update+0x52>
    3cb2:	80 91 73 42 	lds	r24, 0x4273	; 0x804273 <smart_switch_delete_flag>
    3cb6:	81 11       	cpse	r24, r1
    3cb8:	03 c0       	rjmp	.+6      	; 0x3cc0 <lcd_icon_update+0x58>
    3cba:	81 e0       	ldi	r24, 0x01	; 1
    3cbc:	80 93 74 42 	sts	0x4274, r24	; 0x804274 <smart_switch_icon_update_flag>
    3cc0:	10 92 91 42 	sts	0x4291, r1	; 0x804291 <_1sec>
    3cc4:	80 91 90 42 	lds	r24, 0x4290	; 0x804290 <_300sec>
    3cc8:	88 23       	and	r24, r24
    3cca:	29 f0       	breq	.+10     	; 0x3cd6 <lcd_icon_update+0x6e>
    3ccc:	81 e0       	ldi	r24, 0x01	; 1
    3cce:	80 93 76 42 	sts	0x4276, r24	; 0x804276 <update_bar_flag>
    3cd2:	10 92 90 42 	sts	0x4290, r1	; 0x804290 <_300sec>
    3cd6:	08 95       	ret

00003cd8 <power_on_screen>:
    3cd8:	0f 93       	push	r16
    3cda:	2a e0       	ldi	r18, 0x0A	; 10
    3cdc:	44 e0       	ldi	r20, 0x04	; 4
    3cde:	60 e0       	ldi	r22, 0x00	; 0
    3ce0:	80 e0       	ldi	r24, 0x00	; 0
    3ce2:	0e 94 31 15 	call	0x2a62	; 0x2a62 <delete_rectangle>
    3ce6:	08 e3       	ldi	r16, 0x38	; 56
    3ce8:	2e e1       	ldi	r18, 0x1E	; 30
    3cea:	48 e2       	ldi	r20, 0x28	; 40
    3cec:	5d e1       	ldi	r21, 0x1D	; 29
    3cee:	62 e3       	ldi	r22, 0x32	; 50
    3cf0:	8e e1       	ldi	r24, 0x1E	; 30
    3cf2:	0e 94 b9 12 	call	0x2572	; 0x2572 <print_icon>
    3cf6:	00 e3       	ldi	r16, 0x30	; 48
    3cf8:	28 e0       	ldi	r18, 0x08	; 8
    3cfa:	48 ef       	ldi	r20, 0xF8	; 248
    3cfc:	5c e1       	ldi	r21, 0x1C	; 28
    3cfe:	64 e6       	ldi	r22, 0x64	; 100
    3d00:	8f e1       	ldi	r24, 0x1F	; 31
    3d02:	0e 94 b9 12 	call	0x2572	; 0x2572 <print_icon>
    3d06:	0f 91       	pop	r16
    3d08:	08 95       	ret

00003d0a <partitions>:
    3d0a:	0f 93       	push	r16
    3d0c:	2e e1       	ldi	r18, 0x1E	; 30
    3d0e:	46 e0       	ldi	r20, 0x06	; 6
    3d10:	60 e0       	ldi	r22, 0x00	; 0
    3d12:	80 e0       	ldi	r24, 0x00	; 0
    3d14:	0e 94 fd 14 	call	0x29fa	; 0x29fa <draw_filled_rectangle>
    3d18:	01 e0       	ldi	r16, 0x01	; 1
    3d1a:	2e e1       	ldi	r18, 0x1E	; 30
    3d1c:	4f e4       	ldi	r20, 0x4F	; 79
    3d1e:	6e e1       	ldi	r22, 0x1E	; 30
    3d20:	80 e0       	ldi	r24, 0x00	; 0
    3d22:	0e 94 cb 14 	call	0x2996	; 0x2996 <print_line>
    3d26:	2d e1       	ldi	r18, 0x1D	; 29
    3d28:	4f e4       	ldi	r20, 0x4F	; 79
    3d2a:	6d e1       	ldi	r22, 0x1D	; 29
    3d2c:	80 e0       	ldi	r24, 0x00	; 0
    3d2e:	0e 94 cb 14 	call	0x2996	; 0x2996 <print_line>
    3d32:	00 e0       	ldi	r16, 0x00	; 0
    3d34:	22 e7       	ldi	r18, 0x72	; 114
    3d36:	43 e3       	ldi	r20, 0x33	; 51
    3d38:	6f e1       	ldi	r22, 0x1F	; 31
    3d3a:	83 e3       	ldi	r24, 0x33	; 51
    3d3c:	0e 94 cb 14 	call	0x2996	; 0x2996 <print_line>
    3d40:	01 e0       	ldi	r16, 0x01	; 1
    3d42:	22 e7       	ldi	r18, 0x72	; 114
    3d44:	4f e4       	ldi	r20, 0x4F	; 79
    3d46:	62 e7       	ldi	r22, 0x72	; 114
    3d48:	80 e0       	ldi	r24, 0x00	; 0
    3d4a:	0e 94 cb 14 	call	0x2996	; 0x2996 <print_line>
    3d4e:	23 e7       	ldi	r18, 0x73	; 115
    3d50:	4f e4       	ldi	r20, 0x4F	; 79
    3d52:	63 e7       	ldi	r22, 0x73	; 115
    3d54:	80 e0       	ldi	r24, 0x00	; 0
    3d56:	0e 94 cb 14 	call	0x2996	; 0x2996 <print_line>
    3d5a:	0f 91       	pop	r16
    3d5c:	08 95       	ret

00003d5e <EDGE>:
    3d5e:	0f 93       	push	r16
    3d60:	00 e0       	ldi	r16, 0x00	; 0
    3d62:	2e e9       	ldi	r18, 0x9E	; 158
    3d64:	40 e0       	ldi	r20, 0x00	; 0
    3d66:	60 e0       	ldi	r22, 0x00	; 0
    3d68:	80 e0       	ldi	r24, 0x00	; 0
    3d6a:	0e 94 99 14 	call	0x2932	; 0x2932 <print_double_line>
    3d6e:	01 e0       	ldi	r16, 0x01	; 1
    3d70:	20 e0       	ldi	r18, 0x00	; 0
    3d72:	4f e4       	ldi	r20, 0x4F	; 79
    3d74:	60 e0       	ldi	r22, 0x00	; 0
    3d76:	80 e0       	ldi	r24, 0x00	; 0
    3d78:	0e 94 cb 14 	call	0x2996	; 0x2996 <print_line>
    3d7c:	21 e0       	ldi	r18, 0x01	; 1
    3d7e:	4f e4       	ldi	r20, 0x4F	; 79
    3d80:	61 e0       	ldi	r22, 0x01	; 1
    3d82:	80 e0       	ldi	r24, 0x00	; 0
    3d84:	0e 94 cb 14 	call	0x2996	; 0x2996 <print_line>
    3d88:	00 e0       	ldi	r16, 0x00	; 0
    3d8a:	2e e9       	ldi	r18, 0x9E	; 158
    3d8c:	4f e4       	ldi	r20, 0x4F	; 79
    3d8e:	60 e0       	ldi	r22, 0x00	; 0
    3d90:	8f e4       	ldi	r24, 0x4F	; 79
    3d92:	0e 94 99 14 	call	0x2932	; 0x2932 <print_double_line>
    3d96:	01 e0       	ldi	r16, 0x01	; 1
    3d98:	2f e9       	ldi	r18, 0x9F	; 159
    3d9a:	4f e4       	ldi	r20, 0x4F	; 79
    3d9c:	6f e9       	ldi	r22, 0x9F	; 159
    3d9e:	80 e0       	ldi	r24, 0x00	; 0
    3da0:	0e 94 cb 14 	call	0x2996	; 0x2996 <print_line>
    3da4:	2e e9       	ldi	r18, 0x9E	; 158
    3da6:	4f e4       	ldi	r20, 0x4F	; 79
    3da8:	6e e9       	ldi	r22, 0x9E	; 158
    3daa:	80 e0       	ldi	r24, 0x00	; 0
    3dac:	0e 94 cb 14 	call	0x2996	; 0x2996 <print_line>
    3db0:	0f 91       	pop	r16
    3db2:	08 95       	ret

00003db4 <show_mmgh_4digit>:
    3db4:	ef 92       	push	r14
    3db6:	ff 92       	push	r15
    3db8:	0f 93       	push	r16
    3dba:	1f 93       	push	r17
    3dbc:	cf 93       	push	r28
    3dbe:	df 93       	push	r29
    3dc0:	c8 2f       	mov	r28, r24
    3dc2:	d6 2f       	mov	r29, r22
    3dc4:	60 91 be 42 	lds	r22, 0x42BE	; 0x8042be <current_pressure_mmhg>
    3dc8:	70 91 bf 42 	lds	r23, 0x42BF	; 0x8042bf <current_pressure_mmhg+0x1>
    3dcc:	80 91 c0 42 	lds	r24, 0x42C0	; 0x8042c0 <current_pressure_mmhg+0x2>
    3dd0:	90 91 c1 42 	lds	r25, 0x42C1	; 0x8042c1 <current_pressure_mmhg+0x3>
    3dd4:	0e 94 9b 2a 	call	0x5536	; 0x5536 <__fixsfsi>
    3dd8:	9b 01       	movw	r18, r22
    3dda:	2f 3e       	cpi	r18, 0xEF	; 239
    3ddc:	82 e0       	ldi	r24, 0x02	; 2
    3dde:	38 07       	cpc	r19, r24
    3de0:	44 f0       	brlt	.+16     	; 0x3df2 <show_mmgh_4digit+0x3e>
    3de2:	10 92 be 42 	sts	0x42BE, r1	; 0x8042be <current_pressure_mmhg>
    3de6:	10 92 bf 42 	sts	0x42BF, r1	; 0x8042bf <current_pressure_mmhg+0x1>
    3dea:	10 92 c0 42 	sts	0x42C0, r1	; 0x8042c0 <current_pressure_mmhg+0x2>
    3dee:	10 92 c1 42 	sts	0x42C1, r1	; 0x8042c1 <current_pressure_mmhg+0x3>
    3df2:	ea e0       	ldi	r30, 0x0A	; 10
    3df4:	f0 e0       	ldi	r31, 0x00	; 0
    3df6:	c9 01       	movw	r24, r18
    3df8:	bf 01       	movw	r22, r30
    3dfa:	0e 94 f5 2b 	call	0x57ea	; 0x57ea <__divmodhi4>
    3dfe:	18 2f       	mov	r17, r24
    3e00:	cb 01       	movw	r24, r22
    3e02:	bf 01       	movw	r22, r30
    3e04:	0e 94 f5 2b 	call	0x57ea	; 0x57ea <__divmodhi4>
    3e08:	f8 2e       	mov	r15, r24
    3e0a:	c9 01       	movw	r24, r18
    3e0c:	64 e6       	ldi	r22, 0x64	; 100
    3e0e:	70 e0       	ldi	r23, 0x00	; 0
    3e10:	0e 94 f5 2b 	call	0x57ea	; 0x57ea <__divmodhi4>
    3e14:	e6 2e       	mov	r14, r22
    3e16:	08 e2       	ldi	r16, 0x28	; 40
    3e18:	21 e3       	ldi	r18, 0x31	; 49
    3e1a:	4d e5       	ldi	r20, 0x5D	; 93
    3e1c:	5a e0       	ldi	r21, 0x0A	; 10
    3e1e:	6d 2f       	mov	r22, r29
    3e20:	8c 2f       	mov	r24, r28
    3e22:	0e 94 a0 13 	call	0x2740	; 0x2740 <print_number>
    3e26:	ef 2c       	mov	r14, r15
    3e28:	21 e3       	ldi	r18, 0x31	; 49
    3e2a:	4d e5       	ldi	r20, 0x5D	; 93
    3e2c:	5a e0       	ldi	r21, 0x0A	; 10
    3e2e:	6d 2f       	mov	r22, r29
    3e30:	8d e0       	ldi	r24, 0x0D	; 13
    3e32:	8c 0f       	add	r24, r28
    3e34:	0e 94 a0 13 	call	0x2740	; 0x2740 <print_number>
    3e38:	e1 2e       	mov	r14, r17
    3e3a:	21 e3       	ldi	r18, 0x31	; 49
    3e3c:	4d e5       	ldi	r20, 0x5D	; 93
    3e3e:	5a e0       	ldi	r21, 0x0A	; 10
    3e40:	6d 2f       	mov	r22, r29
    3e42:	8a e1       	ldi	r24, 0x1A	; 26
    3e44:	8c 0f       	add	r24, r28
    3e46:	0e 94 a0 13 	call	0x2740	; 0x2740 <print_number>
    3e4a:	80 91 77 42 	lds	r24, 0x4277	; 0x804277 <unit_icon_update_flag>
    3e4e:	88 23       	and	r24, r24
    3e50:	51 f0       	breq	.+20     	; 0x3e66 <show_mmgh_4digit+0xb2>
    3e52:	02 e3       	ldi	r16, 0x32	; 50
    3e54:	2d e0       	ldi	r18, 0x0D	; 13
    3e56:	4a ea       	ldi	r20, 0xAA	; 170
    3e58:	5c e1       	ldi	r21, 0x1C	; 28
    3e5a:	6f e5       	ldi	r22, 0x5F	; 95
    3e5c:	8f e1       	ldi	r24, 0x1F	; 31
    3e5e:	0e 94 b9 12 	call	0x2572	; 0x2572 <print_icon>
    3e62:	10 92 77 42 	sts	0x4277, r1	; 0x804277 <unit_icon_update_flag>
    3e66:	df 91       	pop	r29
    3e68:	cf 91       	pop	r28
    3e6a:	1f 91       	pop	r17
    3e6c:	0f 91       	pop	r16
    3e6e:	ff 90       	pop	r15
    3e70:	ef 90       	pop	r14
    3e72:	08 95       	ret

00003e74 <cmH20_4digit>:
    3e74:	df 92       	push	r13
    3e76:	ef 92       	push	r14
    3e78:	ff 92       	push	r15
    3e7a:	0f 93       	push	r16
    3e7c:	1f 93       	push	r17
    3e7e:	cf 93       	push	r28
    3e80:	df 93       	push	r29
    3e82:	c8 2f       	mov	r28, r24
    3e84:	d6 2f       	mov	r29, r22
    3e86:	60 91 ba 42 	lds	r22, 0x42BA	; 0x8042ba <current_pressure_cmh2O>
    3e8a:	70 91 bb 42 	lds	r23, 0x42BB	; 0x8042bb <current_pressure_cmh2O+0x1>
    3e8e:	80 91 bc 42 	lds	r24, 0x42BC	; 0x8042bc <current_pressure_cmh2O+0x2>
    3e92:	90 91 bd 42 	lds	r25, 0x42BD	; 0x8042bd <current_pressure_cmh2O+0x3>
    3e96:	0e 94 9b 2a 	call	0x5536	; 0x5536 <__fixsfsi>
    3e9a:	9b 01       	movw	r18, r22
    3e9c:	2f 3e       	cpi	r18, 0xEF	; 239
    3e9e:	82 e0       	ldi	r24, 0x02	; 2
    3ea0:	38 07       	cpc	r19, r24
    3ea2:	44 f0       	brlt	.+16     	; 0x3eb4 <cmH20_4digit+0x40>
    3ea4:	10 92 ba 42 	sts	0x42BA, r1	; 0x8042ba <current_pressure_cmh2O>
    3ea8:	10 92 bb 42 	sts	0x42BB, r1	; 0x8042bb <current_pressure_cmh2O+0x1>
    3eac:	10 92 bc 42 	sts	0x42BC, r1	; 0x8042bc <current_pressure_cmh2O+0x2>
    3eb0:	10 92 bd 42 	sts	0x42BD, r1	; 0x8042bd <current_pressure_cmh2O+0x3>
    3eb4:	ea e0       	ldi	r30, 0x0A	; 10
    3eb6:	f0 e0       	ldi	r31, 0x00	; 0
    3eb8:	c9 01       	movw	r24, r18
    3eba:	bf 01       	movw	r22, r30
    3ebc:	0e 94 f5 2b 	call	0x57ea	; 0x57ea <__divmodhi4>
    3ec0:	18 2f       	mov	r17, r24
    3ec2:	cb 01       	movw	r24, r22
    3ec4:	bf 01       	movw	r22, r30
    3ec6:	0e 94 f5 2b 	call	0x57ea	; 0x57ea <__divmodhi4>
    3eca:	f8 2e       	mov	r15, r24
    3ecc:	c9 01       	movw	r24, r18
    3ece:	64 e6       	ldi	r22, 0x64	; 100
    3ed0:	70 e0       	ldi	r23, 0x00	; 0
    3ed2:	0e 94 f5 2b 	call	0x57ea	; 0x57ea <__divmodhi4>
    3ed6:	cb 01       	movw	r24, r22
    3ed8:	bf 01       	movw	r22, r30
    3eda:	0e 94 f5 2b 	call	0x57ea	; 0x57ea <__divmodhi4>
    3ede:	d8 2e       	mov	r13, r24
    3ee0:	c9 01       	movw	r24, r18
    3ee2:	68 ee       	ldi	r22, 0xE8	; 232
    3ee4:	73 e0       	ldi	r23, 0x03	; 3
    3ee6:	0e 94 f5 2b 	call	0x57ea	; 0x57ea <__divmodhi4>
    3eea:	e6 2e       	mov	r14, r22
    3eec:	08 e2       	ldi	r16, 0x28	; 40
    3eee:	21 e3       	ldi	r18, 0x31	; 49
    3ef0:	4d e5       	ldi	r20, 0x5D	; 93
    3ef2:	5a e0       	ldi	r21, 0x0A	; 10
    3ef4:	6d 2f       	mov	r22, r29
    3ef6:	8c 2f       	mov	r24, r28
    3ef8:	0e 94 a0 13 	call	0x2740	; 0x2740 <print_number>
    3efc:	ed 2c       	mov	r14, r13
    3efe:	21 e3       	ldi	r18, 0x31	; 49
    3f00:	4d e5       	ldi	r20, 0x5D	; 93
    3f02:	5a e0       	ldi	r21, 0x0A	; 10
    3f04:	6d 2f       	mov	r22, r29
    3f06:	8c e0       	ldi	r24, 0x0C	; 12
    3f08:	8c 0f       	add	r24, r28
    3f0a:	0e 94 a0 13 	call	0x2740	; 0x2740 <print_number>
    3f0e:	ef 2c       	mov	r14, r15
    3f10:	21 e3       	ldi	r18, 0x31	; 49
    3f12:	4d e5       	ldi	r20, 0x5D	; 93
    3f14:	5a e0       	ldi	r21, 0x0A	; 10
    3f16:	6d 2f       	mov	r22, r29
    3f18:	88 e1       	ldi	r24, 0x18	; 24
    3f1a:	8c 0f       	add	r24, r28
    3f1c:	0e 94 a0 13 	call	0x2740	; 0x2740 <print_number>
    3f20:	e1 2e       	mov	r14, r17
    3f22:	21 e3       	ldi	r18, 0x31	; 49
    3f24:	4d e5       	ldi	r20, 0x5D	; 93
    3f26:	5a e0       	ldi	r21, 0x0A	; 10
    3f28:	6d 2f       	mov	r22, r29
    3f2a:	84 e2       	ldi	r24, 0x24	; 36
    3f2c:	8c 0f       	add	r24, r28
    3f2e:	0e 94 a0 13 	call	0x2740	; 0x2740 <print_number>
    3f32:	80 91 77 42 	lds	r24, 0x4277	; 0x804277 <unit_icon_update_flag>
    3f36:	88 23       	and	r24, r24
    3f38:	51 f0       	breq	.+20     	; 0x3f4e <cmH20_4digit+0xda>
    3f3a:	09 e3       	ldi	r16, 0x39	; 57
    3f3c:	2d e0       	ldi	r18, 0x0D	; 13
    3f3e:	4f e4       	ldi	r20, 0x4F	; 79
    3f40:	5c e1       	ldi	r21, 0x1C	; 28
    3f42:	6f e5       	ldi	r22, 0x5F	; 95
    3f44:	8f e1       	ldi	r24, 0x1F	; 31
    3f46:	0e 94 b9 12 	call	0x2572	; 0x2572 <print_icon>
    3f4a:	10 92 77 42 	sts	0x4277, r1	; 0x804277 <unit_icon_update_flag>
    3f4e:	df 91       	pop	r29
    3f50:	cf 91       	pop	r28
    3f52:	1f 91       	pop	r17
    3f54:	0f 91       	pop	r16
    3f56:	ff 90       	pop	r15
    3f58:	ef 90       	pop	r14
    3f5a:	df 90       	pop	r13
    3f5c:	08 95       	ret

00003f5e <MPa_4digit>:
    3f5e:	ef 92       	push	r14
    3f60:	ff 92       	push	r15
    3f62:	0f 93       	push	r16
    3f64:	1f 93       	push	r17
    3f66:	cf 93       	push	r28
    3f68:	df 93       	push	r29
    3f6a:	18 2f       	mov	r17, r24
    3f6c:	f6 2e       	mov	r15, r22
    3f6e:	60 91 b6 42 	lds	r22, 0x42B6	; 0x8042b6 <current_pressure_mpa>
    3f72:	70 91 b7 42 	lds	r23, 0x42B7	; 0x8042b7 <current_pressure_mpa+0x1>
    3f76:	80 91 b8 42 	lds	r24, 0x42B8	; 0x8042b8 <current_pressure_mpa+0x2>
    3f7a:	90 91 b9 42 	lds	r25, 0x42B9	; 0x8042b9 <current_pressure_mpa+0x3>
    3f7e:	0e 94 9b 2a 	call	0x5536	; 0x5536 <__fixsfsi>
    3f82:	eb 01       	movw	r28, r22
    3f84:	07 2e       	mov	r0, r23
    3f86:	00 0c       	add	r0, r0
    3f88:	88 0b       	sbc	r24, r24
    3f8a:	99 0b       	sbc	r25, r25
    3f8c:	0e 94 d3 2a 	call	0x55a6	; 0x55a6 <__floatsisf>
    3f90:	2a e0       	ldi	r18, 0x0A	; 10
    3f92:	37 ed       	ldi	r19, 0xD7	; 215
    3f94:	4f e1       	ldi	r20, 0x1F	; 31
    3f96:	51 e4       	ldi	r21, 0x41	; 65
    3f98:	0e 94 83 2b 	call	0x5706	; 0x5706 <__gesf2>
    3f9c:	18 16       	cp	r1, r24
    3f9e:	44 f4       	brge	.+16     	; 0x3fb0 <MPa_4digit+0x52>
    3fa0:	10 92 b6 42 	sts	0x42B6, r1	; 0x8042b6 <current_pressure_mpa>
    3fa4:	10 92 b7 42 	sts	0x42B7, r1	; 0x8042b7 <current_pressure_mpa+0x1>
    3fa8:	10 92 b8 42 	sts	0x42B8, r1	; 0x8042b8 <current_pressure_mpa+0x2>
    3fac:	10 92 b9 42 	sts	0x42B9, r1	; 0x8042b9 <current_pressure_mpa+0x3>
    3fb0:	ce 01       	movw	r24, r28
    3fb2:	6a e0       	ldi	r22, 0x0A	; 10
    3fb4:	70 e0       	ldi	r23, 0x00	; 0
    3fb6:	0e 94 f5 2b 	call	0x57ea	; 0x57ea <__divmodhi4>
    3fba:	d6 2f       	mov	r29, r22
    3fbc:	c8 2f       	mov	r28, r24
    3fbe:	e1 2c       	mov	r14, r1
    3fc0:	08 e2       	ldi	r16, 0x28	; 40
    3fc2:	21 e3       	ldi	r18, 0x31	; 49
    3fc4:	4d e5       	ldi	r20, 0x5D	; 93
    3fc6:	5a e0       	ldi	r21, 0x0A	; 10
    3fc8:	6f 2d       	mov	r22, r15
    3fca:	81 2f       	mov	r24, r17
    3fcc:	0e 94 a0 13 	call	0x2740	; 0x2740 <print_number>
    3fd0:	09 e0       	ldi	r16, 0x09	; 9
    3fd2:	26 e0       	ldi	r18, 0x06	; 6
    3fd4:	47 ee       	ldi	r20, 0xE7	; 231
    3fd6:	5b e1       	ldi	r21, 0x1B	; 27
    3fd8:	65 e5       	ldi	r22, 0x55	; 85
    3fda:	80 e1       	ldi	r24, 0x10	; 16
    3fdc:	0e 94 b9 12 	call	0x2572	; 0x2572 <print_icon>
    3fe0:	ed 2e       	mov	r14, r29
    3fe2:	08 e2       	ldi	r16, 0x28	; 40
    3fe4:	21 e3       	ldi	r18, 0x31	; 49
    3fe6:	4d e5       	ldi	r20, 0x5D	; 93
    3fe8:	5a e0       	ldi	r21, 0x0A	; 10
    3fea:	6f 2d       	mov	r22, r15
    3fec:	8d e0       	ldi	r24, 0x0D	; 13
    3fee:	81 0f       	add	r24, r17
    3ff0:	0e 94 a0 13 	call	0x2740	; 0x2740 <print_number>
    3ff4:	ec 2e       	mov	r14, r28
    3ff6:	21 e3       	ldi	r18, 0x31	; 49
    3ff8:	4d e5       	ldi	r20, 0x5D	; 93
    3ffa:	5a e0       	ldi	r21, 0x0A	; 10
    3ffc:	6f 2d       	mov	r22, r15
    3ffe:	8a e1       	ldi	r24, 0x1A	; 26
    4000:	81 0f       	add	r24, r17
    4002:	0e 94 a0 13 	call	0x2740	; 0x2740 <print_number>
    4006:	80 91 77 42 	lds	r24, 0x4277	; 0x804277 <unit_icon_update_flag>
    400a:	88 23       	and	r24, r24
    400c:	51 f0       	breq	.+20     	; 0x4022 <__DATA_REGION_LENGTH__+0x22>
    400e:	09 e3       	ldi	r16, 0x39	; 57
    4010:	2e e0       	ldi	r18, 0x0E	; 14
    4012:	4d ee       	ldi	r20, 0xED	; 237
    4014:	5b e1       	ldi	r21, 0x1B	; 27
    4016:	6f e5       	ldi	r22, 0x5F	; 95
    4018:	8f e1       	ldi	r24, 0x1F	; 31
    401a:	0e 94 b9 12 	call	0x2572	; 0x2572 <print_icon>
    401e:	10 92 77 42 	sts	0x4277, r1	; 0x804277 <unit_icon_update_flag>
    4022:	df 91       	pop	r29
    4024:	cf 91       	pop	r28
    4026:	1f 91       	pop	r17
    4028:	0f 91       	pop	r16
    402a:	ff 90       	pop	r15
    402c:	ef 90       	pop	r14
    402e:	08 95       	ret

00004030 <numDigits>:
    4030:	0f 93       	push	r16
    4032:	1f 93       	push	r17
    4034:	cf 93       	push	r28
    4036:	df 93       	push	r29
    4038:	c0 e0       	ldi	r28, 0x00	; 0
    403a:	d0 e0       	ldi	r29, 0x00	; 0
    403c:	09 c0       	rjmp	.+18     	; 0x4050 <numDigits+0x20>
    403e:	2a e0       	ldi	r18, 0x0A	; 10
    4040:	30 e0       	ldi	r19, 0x00	; 0
    4042:	40 e0       	ldi	r20, 0x00	; 0
    4044:	50 e0       	ldi	r21, 0x00	; 0
    4046:	0e 94 2b 2c 	call	0x5856	; 0x5856 <__divmodsi4>
    404a:	ca 01       	movw	r24, r20
    404c:	b9 01       	movw	r22, r18
    404e:	21 96       	adiw	r28, 0x01	; 1
    4050:	8b 01       	movw	r16, r22
    4052:	9c 01       	movw	r18, r24
    4054:	07 5f       	subi	r16, 0xF7	; 247
    4056:	1f 4f       	sbci	r17, 0xFF	; 255
    4058:	2f 4f       	sbci	r18, 0xFF	; 255
    405a:	3f 4f       	sbci	r19, 0xFF	; 255
    405c:	03 31       	cpi	r16, 0x13	; 19
    405e:	11 05       	cpc	r17, r1
    4060:	21 05       	cpc	r18, r1
    4062:	31 05       	cpc	r19, r1
    4064:	60 f7       	brcc	.-40     	; 0x403e <numDigits+0xe>
    4066:	ce 01       	movw	r24, r28
    4068:	01 96       	adiw	r24, 0x01	; 1
    406a:	df 91       	pop	r29
    406c:	cf 91       	pop	r28
    406e:	1f 91       	pop	r17
    4070:	0f 91       	pop	r16
    4072:	08 95       	ret

00004074 <printNumScreen_RightJustified>:
    4074:	2f 92       	push	r2
    4076:	3f 92       	push	r3
    4078:	4f 92       	push	r4
    407a:	5f 92       	push	r5
    407c:	6f 92       	push	r6
    407e:	7f 92       	push	r7
    4080:	8f 92       	push	r8
    4082:	9f 92       	push	r9
    4084:	af 92       	push	r10
    4086:	bf 92       	push	r11
    4088:	cf 92       	push	r12
    408a:	df 92       	push	r13
    408c:	ef 92       	push	r14
    408e:	ff 92       	push	r15
    4090:	0f 93       	push	r16
    4092:	1f 93       	push	r17
    4094:	cf 93       	push	r28
    4096:	df 93       	push	r29
    4098:	56 2e       	mov	r5, r22
    409a:	f2 2e       	mov	r15, r18
    409c:	13 2f       	mov	r17, r19
    409e:	44 2e       	mov	r4, r20
    40a0:	e5 2e       	mov	r14, r21
    40a2:	68 2e       	mov	r6, r24
    40a4:	71 2c       	mov	r7, r1
    40a6:	62 2f       	mov	r22, r18
    40a8:	73 2f       	mov	r23, r19
    40aa:	84 2f       	mov	r24, r20
    40ac:	95 2f       	mov	r25, r21
    40ae:	0e 94 18 20 	call	0x4030	; 0x4030 <numDigits>
    40b2:	5c 01       	movw	r10, r24
    40b4:	1c 01       	movw	r2, r24
    40b6:	62 e0       	ldi	r22, 0x02	; 2
    40b8:	70 e0       	ldi	r23, 0x00	; 0
    40ba:	0e 94 78 2c 	call	0x58f0	; 0x58f0 <calloc>
    40be:	4c 01       	movw	r8, r24
    40c0:	c1 2c       	mov	r12, r1
    40c2:	d1 2c       	mov	r13, r1
    40c4:	18 c0       	rjmp	.+48     	; 0x40f6 <printNumScreen_RightJustified+0x82>
    40c6:	e6 01       	movw	r28, r12
    40c8:	cc 0f       	add	r28, r28
    40ca:	dd 1f       	adc	r29, r29
    40cc:	c8 0d       	add	r28, r8
    40ce:	d9 1d       	adc	r29, r9
    40d0:	6f 2d       	mov	r22, r15
    40d2:	71 2f       	mov	r23, r17
    40d4:	84 2d       	mov	r24, r4
    40d6:	9e 2d       	mov	r25, r14
    40d8:	2a e0       	ldi	r18, 0x0A	; 10
    40da:	30 e0       	ldi	r19, 0x00	; 0
    40dc:	40 e0       	ldi	r20, 0x00	; 0
    40de:	50 e0       	ldi	r21, 0x00	; 0
    40e0:	0e 94 2b 2c 	call	0x5856	; 0x5856 <__divmodsi4>
    40e4:	68 83       	st	Y, r22
    40e6:	79 83       	std	Y+1, r23	; 0x01
    40e8:	f2 2e       	mov	r15, r18
    40ea:	13 2f       	mov	r17, r19
    40ec:	44 2e       	mov	r4, r20
    40ee:	e5 2e       	mov	r14, r21
    40f0:	4f ef       	ldi	r20, 0xFF	; 255
    40f2:	c4 1a       	sub	r12, r20
    40f4:	d4 0a       	sbc	r13, r20
    40f6:	e5 01       	movw	r28, r10
    40f8:	21 97       	sbiw	r28, 0x01	; 1
    40fa:	cc 16       	cp	r12, r28
    40fc:	dd 06       	cpc	r13, r29
    40fe:	1c f3       	brlt	.-58     	; 0x40c6 <printNumScreen_RightJustified+0x52>
    4100:	f1 01       	movw	r30, r2
    4102:	e1 50       	subi	r30, 0x01	; 1
    4104:	f0 48       	sbci	r31, 0x80	; 128
    4106:	ee 0f       	add	r30, r30
    4108:	ff 1f       	adc	r31, r31
    410a:	e8 0d       	add	r30, r8
    410c:	f9 1d       	adc	r31, r9
    410e:	8f 2d       	mov	r24, r15
    4110:	91 2f       	mov	r25, r17
    4112:	80 83       	st	Z, r24
    4114:	91 83       	std	Z+1, r25	; 0x01
    4116:	e0 2e       	mov	r14, r16
    4118:	f1 2c       	mov	r15, r1
    411a:	ae 14       	cp	r10, r14
    411c:	bf 04       	cpc	r11, r15
    411e:	b4 f5       	brge	.+108    	; 0x418c <printNumScreen_RightJustified+0x118>
    4120:	b7 01       	movw	r22, r14
    4122:	66 0f       	add	r22, r22
    4124:	77 1f       	adc	r23, r23
    4126:	c4 01       	movw	r24, r8
    4128:	0e 94 b5 2d 	call	0x5b6a	; 0x5b6a <realloc>
    412c:	4c 01       	movw	r8, r24
    412e:	0a c0       	rjmp	.+20     	; 0x4144 <printNumScreen_RightJustified+0xd0>
    4130:	f5 01       	movw	r30, r10
    4132:	ee 0f       	add	r30, r30
    4134:	ff 1f       	adc	r31, r31
    4136:	e8 0d       	add	r30, r8
    4138:	f9 1d       	adc	r31, r9
    413a:	10 82       	st	Z, r1
    413c:	11 82       	std	Z+1, r1	; 0x01
    413e:	5f ef       	ldi	r21, 0xFF	; 255
    4140:	a5 1a       	sub	r10, r21
    4142:	b5 0a       	sbc	r11, r21
    4144:	ae 14       	cp	r10, r14
    4146:	bf 04       	cpc	r11, r15
    4148:	9c f3       	brlt	.-26     	; 0x4130 <printNumScreen_RightJustified+0xbc>
    414a:	e7 01       	movw	r28, r14
    414c:	21 97       	sbiw	r28, 0x01	; 1
    414e:	2a ef       	ldi	r18, 0xFA	; 250
    4150:	ae 01       	movw	r20, r28
    4152:	24 03       	mulsu	r18, r20
    4154:	c0 01       	movw	r24, r0
    4156:	25 9f       	mul	r18, r21
    4158:	90 0d       	add	r25, r0
    415a:	11 24       	eor	r1, r1
    415c:	68 0e       	add	r6, r24
    415e:	79 1e       	adc	r7, r25
    4160:	12 c0       	rjmp	.+36     	; 0x4186 <printNumScreen_RightJustified+0x112>
    4162:	fe 01       	movw	r30, r28
    4164:	ee 0f       	add	r30, r30
    4166:	ff 1f       	adc	r31, r31
    4168:	e8 0d       	add	r30, r8
    416a:	f9 1d       	adc	r31, r9
    416c:	e0 80       	ld	r14, Z
    416e:	08 e1       	ldi	r16, 0x18	; 24
    4170:	28 e1       	ldi	r18, 0x18	; 24
    4172:	4a e8       	ldi	r20, 0x8A	; 138
    4174:	54 e0       	ldi	r21, 0x04	; 4
    4176:	65 2d       	mov	r22, r5
    4178:	86 2d       	mov	r24, r6
    417a:	0e 94 a0 13 	call	0x2740	; 0x2740 <print_number>
    417e:	56 e0       	ldi	r21, 0x06	; 6
    4180:	65 0e       	add	r6, r21
    4182:	71 1c       	adc	r7, r1
    4184:	21 97       	sbiw	r28, 0x01	; 1
    4186:	dd 23       	and	r29, r29
    4188:	64 f7       	brge	.-40     	; 0x4162 <printNumScreen_RightJustified+0xee>
    418a:	1e c0       	rjmp	.+60     	; 0x41c8 <printNumScreen_RightJustified+0x154>
    418c:	2a ef       	ldi	r18, 0xFA	; 250
    418e:	ae 01       	movw	r20, r28
    4190:	24 03       	mulsu	r18, r20
    4192:	c0 01       	movw	r24, r0
    4194:	25 9f       	mul	r18, r21
    4196:	90 0d       	add	r25, r0
    4198:	11 24       	eor	r1, r1
    419a:	68 0e       	add	r6, r24
    419c:	79 1e       	adc	r7, r25
    419e:	12 c0       	rjmp	.+36     	; 0x41c4 <printNumScreen_RightJustified+0x150>
    41a0:	fe 01       	movw	r30, r28
    41a2:	ee 0f       	add	r30, r30
    41a4:	ff 1f       	adc	r31, r31
    41a6:	e8 0d       	add	r30, r8
    41a8:	f9 1d       	adc	r31, r9
    41aa:	e0 80       	ld	r14, Z
    41ac:	08 e1       	ldi	r16, 0x18	; 24
    41ae:	28 e1       	ldi	r18, 0x18	; 24
    41b0:	4a e8       	ldi	r20, 0x8A	; 138
    41b2:	54 e0       	ldi	r21, 0x04	; 4
    41b4:	65 2d       	mov	r22, r5
    41b6:	86 2d       	mov	r24, r6
    41b8:	0e 94 a0 13 	call	0x2740	; 0x2740 <print_number>
    41bc:	56 e0       	ldi	r21, 0x06	; 6
    41be:	65 0e       	add	r6, r21
    41c0:	71 1c       	adc	r7, r1
    41c2:	21 97       	sbiw	r28, 0x01	; 1
    41c4:	dd 23       	and	r29, r29
    41c6:	64 f7       	brge	.-40     	; 0x41a0 <printNumScreen_RightJustified+0x12c>
    41c8:	c4 01       	movw	r24, r8
    41ca:	0e 94 2c 2d 	call	0x5a58	; 0x5a58 <free>
    41ce:	df 91       	pop	r29
    41d0:	cf 91       	pop	r28
    41d2:	1f 91       	pop	r17
    41d4:	0f 91       	pop	r16
    41d6:	ff 90       	pop	r15
    41d8:	ef 90       	pop	r14
    41da:	df 90       	pop	r13
    41dc:	cf 90       	pop	r12
    41de:	bf 90       	pop	r11
    41e0:	af 90       	pop	r10
    41e2:	9f 90       	pop	r9
    41e4:	8f 90       	pop	r8
    41e6:	7f 90       	pop	r7
    41e8:	6f 90       	pop	r6
    41ea:	5f 90       	pop	r5
    41ec:	4f 90       	pop	r4
    41ee:	3f 90       	pop	r3
    41f0:	2f 90       	pop	r2
    41f2:	08 95       	ret

000041f4 <bar_draw_delete_rectangle>:
    41f4:	df 92       	push	r13
    41f6:	ef 92       	push	r14
    41f8:	ff 92       	push	r15
    41fa:	0f 93       	push	r16
    41fc:	1f 93       	push	r17
    41fe:	cf 93       	push	r28
    4200:	df 93       	push	r29
    4202:	f8 2e       	mov	r15, r24
    4204:	d6 2e       	mov	r13, r22
    4206:	e4 2e       	mov	r14, r20
    4208:	02 2f       	mov	r16, r18
    420a:	06 1b       	sub	r16, r22
    420c:	d4 2f       	mov	r29, r20
    420e:	d8 1b       	sub	r29, r24
    4210:	10 e0       	ldi	r17, 0x00	; 0
    4212:	13 c0       	rjmp	.+38     	; 0x423a <bar_draw_delete_rectangle+0x46>
    4214:	61 2f       	mov	r22, r17
    4216:	6d 0d       	add	r22, r13
    4218:	26 2f       	mov	r18, r22
    421a:	4e 2d       	mov	r20, r14
    421c:	8f 2d       	mov	r24, r15
    421e:	0e 94 fb 11 	call	0x23f6	; 0x23f6 <window_program_start_end_colm_row_addr>
    4222:	c0 e0       	ldi	r28, 0x00	; 0
    4224:	07 c0       	rjmp	.+14     	; 0x4234 <bar_draw_delete_rectangle+0x40>
    4226:	80 e0       	ldi	r24, 0x00	; 0
    4228:	0e 94 90 11 	call	0x2320	; 0x2320 <UC1698U_SEND_BYTE_DATA>
    422c:	80 e0       	ldi	r24, 0x00	; 0
    422e:	0e 94 90 11 	call	0x2320	; 0x2320 <UC1698U_SEND_BYTE_DATA>
    4232:	cf 5f       	subi	r28, 0xFF	; 255
    4234:	cd 17       	cp	r28, r29
    4236:	b8 f3       	brcs	.-18     	; 0x4226 <bar_draw_delete_rectangle+0x32>
    4238:	1f 5f       	subi	r17, 0xFF	; 255
    423a:	10 17       	cp	r17, r16
    423c:	58 f3       	brcs	.-42     	; 0x4214 <bar_draw_delete_rectangle+0x20>
    423e:	df 91       	pop	r29
    4240:	cf 91       	pop	r28
    4242:	1f 91       	pop	r17
    4244:	0f 91       	pop	r16
    4246:	ff 90       	pop	r15
    4248:	ef 90       	pop	r14
    424a:	df 90       	pop	r13
    424c:	08 95       	ret

0000424e <bar_draw_filled_rectangle>:
    424e:	df 92       	push	r13
    4250:	ef 92       	push	r14
    4252:	ff 92       	push	r15
    4254:	0f 93       	push	r16
    4256:	1f 93       	push	r17
    4258:	cf 93       	push	r28
    425a:	df 93       	push	r29
    425c:	f8 2e       	mov	r15, r24
    425e:	d6 2e       	mov	r13, r22
    4260:	e4 2e       	mov	r14, r20
    4262:	02 2f       	mov	r16, r18
    4264:	06 1b       	sub	r16, r22
    4266:	d4 2f       	mov	r29, r20
    4268:	d8 1b       	sub	r29, r24
    426a:	10 e0       	ldi	r17, 0x00	; 0
    426c:	13 c0       	rjmp	.+38     	; 0x4294 <bar_draw_filled_rectangle+0x46>
    426e:	61 2f       	mov	r22, r17
    4270:	6d 0d       	add	r22, r13
    4272:	26 2f       	mov	r18, r22
    4274:	4e 2d       	mov	r20, r14
    4276:	8f 2d       	mov	r24, r15
    4278:	0e 94 fb 11 	call	0x23f6	; 0x23f6 <window_program_start_end_colm_row_addr>
    427c:	c0 e0       	ldi	r28, 0x00	; 0
    427e:	07 c0       	rjmp	.+14     	; 0x428e <bar_draw_filled_rectangle+0x40>
    4280:	8f ef       	ldi	r24, 0xFF	; 255
    4282:	0e 94 90 11 	call	0x2320	; 0x2320 <UC1698U_SEND_BYTE_DATA>
    4286:	8f ef       	ldi	r24, 0xFF	; 255
    4288:	0e 94 90 11 	call	0x2320	; 0x2320 <UC1698U_SEND_BYTE_DATA>
    428c:	cf 5f       	subi	r28, 0xFF	; 255
    428e:	cd 17       	cp	r28, r29
    4290:	b8 f3       	brcs	.-18     	; 0x4280 <bar_draw_filled_rectangle+0x32>
    4292:	1f 5f       	subi	r17, 0xFF	; 255
    4294:	10 17       	cp	r17, r16
    4296:	58 f3       	brcs	.-42     	; 0x426e <bar_draw_filled_rectangle+0x20>
    4298:	df 91       	pop	r29
    429a:	cf 91       	pop	r28
    429c:	1f 91       	pop	r17
    429e:	0f 91       	pop	r16
    42a0:	ff 90       	pop	r15
    42a2:	ef 90       	pop	r14
    42a4:	df 90       	pop	r13
    42a6:	08 95       	ret

000042a8 <lcd_pressure_bar_init>:
    42a8:	2d e1       	ldi	r18, 0x1D	; 29
    42aa:	42 e0       	ldi	r20, 0x02	; 2
    42ac:	60 e0       	ldi	r22, 0x00	; 0
    42ae:	80 e0       	ldi	r24, 0x00	; 0
    42b0:	0e 94 27 21 	call	0x424e	; 0x424e <bar_draw_filled_rectangle>
    42b4:	08 95       	ret

000042b6 <lcd_loading_page>:
    42b6:	0f 93       	push	r16
    42b8:	26 e9       	ldi	r18, 0x96	; 150
    42ba:	46 e4       	ldi	r20, 0x46	; 70
    42bc:	60 e0       	ldi	r22, 0x00	; 0
    42be:	80 e0       	ldi	r24, 0x00	; 0
    42c0:	0e 94 31 15 	call	0x2a62	; 0x2a62 <delete_rectangle>
    42c4:	0e 94 54 21 	call	0x42a8	; 0x42a8 <lcd_pressure_bar_init>
    42c8:	0e 94 af 1e 	call	0x3d5e	; 0x3d5e <EDGE>
    42cc:	0e 94 85 1e 	call	0x3d0a	; 0x3d0a <partitions>
    42d0:	10 92 be 42 	sts	0x42BE, r1	; 0x8042be <current_pressure_mmhg>
    42d4:	10 92 bf 42 	sts	0x42BF, r1	; 0x8042bf <current_pressure_mmhg+0x1>
    42d8:	10 92 c0 42 	sts	0x42C0, r1	; 0x8042c0 <current_pressure_mmhg+0x2>
    42dc:	10 92 c1 42 	sts	0x42C1, r1	; 0x8042c1 <current_pressure_mmhg+0x3>
    42e0:	6a e2       	ldi	r22, 0x2A	; 42
    42e2:	86 e0       	ldi	r24, 0x06	; 6
    42e4:	0e 94 da 1e 	call	0x3db4	; 0x3db4 <show_mmgh_4digit>
    42e8:	80 91 11 40 	lds	r24, 0x4011	; 0x804011 <LPM_20>
    42ec:	90 91 12 40 	lds	r25, 0x4012	; 0x804012 <LPM_20+0x1>
    42f0:	80 93 55 42 	sts	0x4255, r24	; 0x804255 <Duty_cycle>
    42f4:	90 93 56 42 	sts	0x4256, r25	; 0x804256 <Duty_cycle+0x1>
    42f8:	81 e0       	ldi	r24, 0x01	; 1
    42fa:	80 93 54 42 	sts	0x4254, r24	; 0x804254 <lpm20_flag>
    42fe:	08 e2       	ldi	r16, 0x28	; 40
    4300:	21 e3       	ldi	r18, 0x31	; 49
    4302:	43 ec       	ldi	r20, 0xC3	; 195
    4304:	57 e1       	ldi	r21, 0x17	; 23
    4306:	68 e2       	ldi	r22, 0x28	; 40
    4308:	85 e3       	ldi	r24, 0x35	; 53
    430a:	0e 94 b9 12 	call	0x2572	; 0x2572 <print_icon>
    430e:	21 e3       	ldi	r18, 0x31	; 49
    4310:	48 eb       	ldi	r20, 0xB8	; 184
    4312:	58 e1       	ldi	r21, 0x18	; 24
    4314:	68 e2       	ldi	r22, 0x28	; 40
    4316:	82 e4       	ldi	r24, 0x42	; 66
    4318:	0e 94 b9 12 	call	0x2572	; 0x2572 <print_icon>
    431c:	2f e0       	ldi	r18, 0x0F	; 15
    431e:	45 e1       	ldi	r20, 0x15	; 21
    4320:	5b e1       	ldi	r21, 0x1B	; 27
    4322:	6f e5       	ldi	r22, 0x5F	; 95
    4324:	82 e4       	ldi	r24, 0x42	; 66
    4326:	0e 94 b9 12 	call	0x2572	; 0x2572 <print_icon>
    432a:	2f ef       	ldi	r18, 0xFF	; 255
    432c:	82 e5       	ldi	r24, 0x52	; 82
    432e:	97 e0       	ldi	r25, 0x07	; 7
    4330:	21 50       	subi	r18, 0x01	; 1
    4332:	80 40       	sbci	r24, 0x00	; 0
    4334:	90 40       	sbci	r25, 0x00	; 0
    4336:	e1 f7       	brne	.-8      	; 0x4330 <lcd_loading_page+0x7a>
    4338:	00 c0       	rjmp	.+0      	; 0x433a <lcd_loading_page+0x84>
    433a:	00 00       	nop
    433c:	0f 91       	pop	r16
    433e:	08 95       	ret

00004340 <lcd_pressure_bar_main>:
    4340:	0f 93       	push	r16
    4342:	1f 93       	push	r17
    4344:	cf 93       	push	r28
    4346:	df 93       	push	r29
    4348:	28 eb       	ldi	r18, 0xB8	; 184
    434a:	3e e1       	ldi	r19, 0x1E	; 30
    434c:	45 ec       	ldi	r20, 0xC5	; 197
    434e:	5d e3       	ldi	r21, 0x3D	; 61
    4350:	60 91 be 42 	lds	r22, 0x42BE	; 0x8042be <current_pressure_mmhg>
    4354:	70 91 bf 42 	lds	r23, 0x42BF	; 0x8042bf <current_pressure_mmhg+0x1>
    4358:	80 91 c0 42 	lds	r24, 0x42C0	; 0x8042c0 <current_pressure_mmhg+0x2>
    435c:	90 91 c1 42 	lds	r25, 0x42C1	; 0x8042c1 <current_pressure_mmhg+0x3>
    4360:	0e 94 88 2b 	call	0x5710	; 0x5710 <__mulsf3>
    4364:	0e 94 a2 2a 	call	0x5544	; 0x5544 <__fixunssfsi>
    4368:	16 2f       	mov	r17, r22
    436a:	07 2f       	mov	r16, r23
    436c:	c6 2f       	mov	r28, r22
    436e:	d0 2f       	mov	r29, r16
    4370:	80 91 06 40 	lds	r24, 0x4006	; 0x804006 <previous_x2.5680>
    4374:	90 91 07 40 	lds	r25, 0x4007	; 0x804007 <previous_x2.5680+0x1>
    4378:	8c 17       	cp	r24, r28
    437a:	9d 07       	cpc	r25, r29
    437c:	88 f4       	brcc	.+34     	; 0x43a0 <lcd_pressure_bar_main+0x60>
    437e:	cd 34       	cpi	r28, 0x4D	; 77
    4380:	d1 05       	cpc	r29, r1
    4382:	10 f0       	brcs	.+4      	; 0x4388 <lcd_pressure_bar_main+0x48>
    4384:	cc e4       	ldi	r28, 0x4C	; 76
    4386:	d0 e0       	ldi	r29, 0x00	; 0
    4388:	4c 2f       	mov	r20, r28
    438a:	4e 5f       	subi	r20, 0xFE	; 254
    438c:	2d e1       	ldi	r18, 0x1D	; 29
    438e:	62 e0       	ldi	r22, 0x02	; 2
    4390:	8e 5f       	subi	r24, 0xFE	; 254
    4392:	0e 94 27 21 	call	0x424e	; 0x424e <bar_draw_filled_rectangle>
    4396:	c0 93 06 40 	sts	0x4006, r28	; 0x804006 <previous_x2.5680>
    439a:	d0 93 07 40 	sts	0x4007, r29	; 0x804007 <previous_x2.5680+0x1>
    439e:	11 c0       	rjmp	.+34     	; 0x43c2 <lcd_pressure_bar_main+0x82>
    43a0:	c8 17       	cp	r28, r24
    43a2:	d9 07       	cpc	r29, r25
    43a4:	70 f4       	brcc	.+28     	; 0x43c2 <lcd_pressure_bar_main+0x82>
    43a6:	42 e0       	ldi	r20, 0x02	; 2
    43a8:	48 0f       	add	r20, r24
    43aa:	2d e1       	ldi	r18, 0x1D	; 29
    43ac:	62 e0       	ldi	r22, 0x02	; 2
    43ae:	82 e0       	ldi	r24, 0x02	; 2
    43b0:	81 0f       	add	r24, r17
    43b2:	0e 94 fa 20 	call	0x41f4	; 0x41f4 <bar_draw_delete_rectangle>
    43b6:	81 2f       	mov	r24, r17
    43b8:	90 2f       	mov	r25, r16
    43ba:	80 93 06 40 	sts	0x4006, r24	; 0x804006 <previous_x2.5680>
    43be:	90 93 07 40 	sts	0x4007, r25	; 0x804007 <previous_x2.5680+0x1>
    43c2:	df 91       	pop	r29
    43c4:	cf 91       	pop	r28
    43c6:	1f 91       	pop	r17
    43c8:	0f 91       	pop	r16
    43ca:	08 95       	ret

000043cc <lcd_uc1698u_main_screen>:
    43cc:	0f 93       	push	r16
    43ce:	0e 94 34 1e 	call	0x3c68	; 0x3c68 <lcd_icon_update>
    43d2:	80 91 78 42 	lds	r24, 0x4278	; 0x804278 <update_pressure_flag>
    43d6:	88 23       	and	r24, r24
    43d8:	89 f1       	breq	.+98     	; 0x443c <lcd_uc1698u_main_screen+0x70>
    43da:	80 91 16 40 	lds	r24, 0x4016	; 0x804016 <unit_mode>
    43de:	82 30       	cpi	r24, 0x02	; 2
    43e0:	99 f0       	breq	.+38     	; 0x4408 <lcd_uc1698u_main_screen+0x3c>
    43e2:	83 30       	cpi	r24, 0x03	; 3
    43e4:	b1 f0       	breq	.+44     	; 0x4412 <lcd_uc1698u_main_screen+0x46>
    43e6:	81 30       	cpi	r24, 0x01	; 1
    43e8:	19 f5       	brne	.+70     	; 0x4430 <lcd_uc1698u_main_screen+0x64>
    43ea:	80 91 77 42 	lds	r24, 0x4277	; 0x804277 <unit_icon_update_flag>
    43ee:	88 23       	and	r24, r24
    43f0:	31 f0       	breq	.+12     	; 0x43fe <lcd_uc1698u_main_screen+0x32>
    43f2:	2f e5       	ldi	r18, 0x5F	; 95
    43f4:	42 e3       	ldi	r20, 0x32	; 50
    43f6:	6a e2       	ldi	r22, 0x2A	; 42
    43f8:	82 e0       	ldi	r24, 0x02	; 2
    43fa:	0e 94 31 15 	call	0x2a62	; 0x2a62 <delete_rectangle>
    43fe:	6a e2       	ldi	r22, 0x2A	; 42
    4400:	86 e0       	ldi	r24, 0x06	; 6
    4402:	0e 94 da 1e 	call	0x3db4	; 0x3db4 <show_mmgh_4digit>
    4406:	18 c0       	rjmp	.+48     	; 0x4438 <lcd_uc1698u_main_screen+0x6c>
    4408:	6a e2       	ldi	r22, 0x2A	; 42
    440a:	82 e0       	ldi	r24, 0x02	; 2
    440c:	0e 94 3a 1f 	call	0x3e74	; 0x3e74 <cmH20_4digit>
    4410:	13 c0       	rjmp	.+38     	; 0x4438 <lcd_uc1698u_main_screen+0x6c>
    4412:	80 91 77 42 	lds	r24, 0x4277	; 0x804277 <unit_icon_update_flag>
    4416:	88 23       	and	r24, r24
    4418:	31 f0       	breq	.+12     	; 0x4426 <lcd_uc1698u_main_screen+0x5a>
    441a:	2f e5       	ldi	r18, 0x5F	; 95
    441c:	42 e3       	ldi	r20, 0x32	; 50
    441e:	6a e2       	ldi	r22, 0x2A	; 42
    4420:	82 e0       	ldi	r24, 0x02	; 2
    4422:	0e 94 31 15 	call	0x2a62	; 0x2a62 <delete_rectangle>
    4426:	6a e2       	ldi	r22, 0x2A	; 42
    4428:	86 e0       	ldi	r24, 0x06	; 6
    442a:	0e 94 af 1f 	call	0x3f5e	; 0x3f5e <MPa_4digit>
    442e:	04 c0       	rjmp	.+8      	; 0x4438 <lcd_uc1698u_main_screen+0x6c>
    4430:	6a e2       	ldi	r22, 0x2A	; 42
    4432:	86 e0       	ldi	r24, 0x06	; 6
    4434:	0e 94 da 1e 	call	0x3db4	; 0x3db4 <show_mmgh_4digit>
    4438:	10 92 78 42 	sts	0x4278, r1	; 0x804278 <update_pressure_flag>
    443c:	80 91 76 42 	lds	r24, 0x4276	; 0x804276 <update_bar_flag>
    4440:	88 23       	and	r24, r24
    4442:	21 f0       	breq	.+8      	; 0x444c <lcd_uc1698u_main_screen+0x80>
    4444:	0e 94 a0 21 	call	0x4340	; 0x4340 <lcd_pressure_bar_main>
    4448:	10 92 76 42 	sts	0x4276, r1	; 0x804276 <update_bar_flag>
    444c:	80 91 14 40 	lds	r24, 0x4014	; 0x804014 <update_power_save_icon_flag>
    4450:	88 23       	and	r24, r24
    4452:	f9 f0       	breq	.+62     	; 0x4492 <lcd_uc1698u_main_screen+0xc6>
    4454:	80 91 6a 42 	lds	r24, 0x426A	; 0x80426a <power_save_mode_on_flag>
    4458:	88 23       	and	r24, r24
    445a:	71 f0       	breq	.+28     	; 0x4478 <lcd_uc1698u_main_screen+0xac>
    445c:	e0 e2       	ldi	r30, 0x20	; 32
    445e:	f4 e0       	ldi	r31, 0x04	; 4
    4460:	84 81       	ldd	r24, Z+4	; 0x04
    4462:	80 62       	ori	r24, 0x20	; 32
    4464:	84 83       	std	Z+4, r24	; 0x04
    4466:	0a e2       	ldi	r16, 0x2A	; 42
    4468:	2b e1       	ldi	r18, 0x1B	; 27
    446a:	40 e6       	ldi	r20, 0x60	; 96
    446c:	5b e1       	ldi	r21, 0x1B	; 27
    446e:	6b e7       	ldi	r22, 0x7B	; 123
    4470:	8c e3       	ldi	r24, 0x3C	; 60
    4472:	0e 94 b9 12 	call	0x2572	; 0x2572 <print_icon>
    4476:	0b c0       	rjmp	.+22     	; 0x448e <lcd_uc1698u_main_screen+0xc2>
    4478:	e0 e2       	ldi	r30, 0x20	; 32
    447a:	f4 e0       	ldi	r31, 0x04	; 4
    447c:	84 81       	ldd	r24, Z+4	; 0x04
    447e:	8f 7d       	andi	r24, 0xDF	; 223
    4480:	84 83       	std	Z+4, r24	; 0x04
    4482:	26 e9       	ldi	r18, 0x96	; 150
    4484:	4d e4       	ldi	r20, 0x4D	; 77
    4486:	68 e7       	ldi	r22, 0x78	; 120
    4488:	8c e3       	ldi	r24, 0x3C	; 60
    448a:	0e 94 31 15 	call	0x2a62	; 0x2a62 <delete_rectangle>
    448e:	10 92 14 40 	sts	0x4014, r1	; 0x804014 <update_power_save_icon_flag>
    4492:	80 91 6a 42 	lds	r24, 0x426A	; 0x80426a <power_save_mode_on_flag>
    4496:	88 23       	and	r24, r24
    4498:	09 f4       	brne	.+2      	; 0x449c <lcd_uc1698u_main_screen+0xd0>
    449a:	49 c0       	rjmp	.+146    	; 0x452e <lcd_uc1698u_main_screen+0x162>
    449c:	80 91 69 42 	lds	r24, 0x4269	; 0x804269 <power_save_icon_blink_flag>
    44a0:	88 23       	and	r24, r24
    44a2:	09 f4       	brne	.+2      	; 0x44a6 <lcd_uc1698u_main_screen+0xda>
    44a4:	44 c0       	rjmp	.+136    	; 0x452e <lcd_uc1698u_main_screen+0x162>
    44a6:	80 91 92 42 	lds	r24, 0x4292	; 0x804292 <g_foot_sw_blink_millis>
    44aa:	90 91 93 42 	lds	r25, 0x4293	; 0x804293 <g_foot_sw_blink_millis+0x1>
    44ae:	20 91 a2 42 	lds	r18, 0x42A2	; 0x8042a2 <millis>
    44b2:	30 91 a3 42 	lds	r19, 0x42A3	; 0x8042a3 <millis+0x1>
    44b6:	82 1b       	sub	r24, r18
    44b8:	93 0b       	sbc	r25, r19
    44ba:	9c 01       	movw	r18, r24
    44bc:	22 f4       	brpl	.+8      	; 0x44c6 <lcd_uc1698u_main_screen+0xfa>
    44be:	22 27       	eor	r18, r18
    44c0:	33 27       	eor	r19, r19
    44c2:	28 1b       	sub	r18, r24
    44c4:	39 0b       	sbc	r19, r25
    44c6:	29 3e       	cpi	r18, 0xE9	; 233
    44c8:	33 40       	sbci	r19, 0x03	; 3
    44ca:	8c f1       	brlt	.+98     	; 0x452e <lcd_uc1698u_main_screen+0x162>
    44cc:	90 91 8f 42 	lds	r25, 0x428F	; 0x80428f <blink_flag>
    44d0:	81 e0       	ldi	r24, 0x01	; 1
    44d2:	89 27       	eor	r24, r25
    44d4:	80 93 8f 42 	sts	0x428F, r24	; 0x80428f <blink_flag>
    44d8:	88 23       	and	r24, r24
    44da:	61 f0       	breq	.+24     	; 0x44f4 <lcd_uc1698u_main_screen+0x128>
    44dc:	e0 e2       	ldi	r30, 0x20	; 32
    44de:	f4 e0       	ldi	r31, 0x04	; 4
    44e0:	84 81       	ldd	r24, Z+4	; 0x04
    44e2:	8f 7d       	andi	r24, 0xDF	; 223
    44e4:	84 83       	std	Z+4, r24	; 0x04
    44e6:	26 e9       	ldi	r18, 0x96	; 150
    44e8:	4d e4       	ldi	r20, 0x4D	; 77
    44ea:	68 e7       	ldi	r22, 0x78	; 120
    44ec:	8c e3       	ldi	r24, 0x3C	; 60
    44ee:	0e 94 31 15 	call	0x2a62	; 0x2a62 <delete_rectangle>
    44f2:	0d c0       	rjmp	.+26     	; 0x450e <lcd_uc1698u_main_screen+0x142>
    44f4:	e0 e2       	ldi	r30, 0x20	; 32
    44f6:	f4 e0       	ldi	r31, 0x04	; 4
    44f8:	84 81       	ldd	r24, Z+4	; 0x04
    44fa:	80 62       	ori	r24, 0x20	; 32
    44fc:	84 83       	std	Z+4, r24	; 0x04
    44fe:	0a e2       	ldi	r16, 0x2A	; 42
    4500:	2b e1       	ldi	r18, 0x1B	; 27
    4502:	40 e6       	ldi	r20, 0x60	; 96
    4504:	5b e1       	ldi	r21, 0x1B	; 27
    4506:	6b e7       	ldi	r22, 0x7B	; 123
    4508:	8c e3       	ldi	r24, 0x3C	; 60
    450a:	0e 94 b9 12 	call	0x2572	; 0x2572 <print_icon>
    450e:	80 91 a2 42 	lds	r24, 0x42A2	; 0x8042a2 <millis>
    4512:	90 91 a3 42 	lds	r25, 0x42A3	; 0x8042a3 <millis+0x1>
    4516:	a0 91 a4 42 	lds	r26, 0x42A4	; 0x8042a4 <millis+0x2>
    451a:	b0 91 a5 42 	lds	r27, 0x42A5	; 0x8042a5 <millis+0x3>
    451e:	80 93 92 42 	sts	0x4292, r24	; 0x804292 <g_foot_sw_blink_millis>
    4522:	90 93 93 42 	sts	0x4293, r25	; 0x804293 <g_foot_sw_blink_millis+0x1>
    4526:	a0 93 94 42 	sts	0x4294, r26	; 0x804294 <g_foot_sw_blink_millis+0x2>
    452a:	b0 93 95 42 	sts	0x4295, r27	; 0x804295 <g_foot_sw_blink_millis+0x3>
    452e:	80 91 74 42 	lds	r24, 0x4274	; 0x804274 <smart_switch_icon_update_flag>
    4532:	88 23       	and	r24, r24
    4534:	09 f4       	brne	.+2      	; 0x4538 <lcd_uc1698u_main_screen+0x16c>
    4536:	57 c0       	rjmp	.+174    	; 0x45e6 <lcd_uc1698u_main_screen+0x21a>
    4538:	80 91 8a 42 	lds	r24, 0x428A	; 0x80428a <smart_switch_mode_flag>
    453c:	88 23       	and	r24, r24
    453e:	09 f4       	brne	.+2      	; 0x4542 <lcd_uc1698u_main_screen+0x176>
    4540:	42 c0       	rjmp	.+132    	; 0x45c6 <lcd_uc1698u_main_screen+0x1fa>
    4542:	e0 e4       	ldi	r30, 0x40	; 64
    4544:	f4 e0       	ldi	r31, 0x04	; 4
    4546:	84 81       	ldd	r24, Z+4	; 0x04
    4548:	84 60       	ori	r24, 0x04	; 4
    454a:	84 83       	std	Z+4, r24	; 0x04
    454c:	80 91 4e 42 	lds	r24, 0x424E	; 0x80424e <__data_end>
    4550:	90 91 4f 42 	lds	r25, 0x424F	; 0x80424f <__data_end+0x1>
    4554:	01 96       	adiw	r24, 0x01	; 1
    4556:	80 93 4e 42 	sts	0x424E, r24	; 0x80424e <__data_end>
    455a:	90 93 4f 42 	sts	0x424F, r25	; 0x80424f <__data_end+0x1>
    455e:	03 97       	sbiw	r24, 0x03	; 3
    4560:	24 f0       	brlt	.+8      	; 0x456a <lcd_uc1698u_main_screen+0x19e>
    4562:	10 92 4e 42 	sts	0x424E, r1	; 0x80424e <__data_end>
    4566:	10 92 4f 42 	sts	0x424F, r1	; 0x80424f <__data_end+0x1>
    456a:	80 91 4e 42 	lds	r24, 0x424E	; 0x80424e <__data_end>
    456e:	90 91 4f 42 	lds	r25, 0x424F	; 0x80424f <__data_end+0x1>
    4572:	81 30       	cpi	r24, 0x01	; 1
    4574:	91 05       	cpc	r25, r1
    4576:	71 f0       	breq	.+28     	; 0x4594 <lcd_uc1698u_main_screen+0x1c8>
    4578:	82 30       	cpi	r24, 0x02	; 2
    457a:	91 05       	cpc	r25, r1
    457c:	a1 f0       	breq	.+40     	; 0x45a6 <lcd_uc1698u_main_screen+0x1da>
    457e:	89 2b       	or	r24, r25
    4580:	d9 f4       	brne	.+54     	; 0x45b8 <lcd_uc1698u_main_screen+0x1ec>
    4582:	08 e2       	ldi	r16, 0x28	; 40
    4584:	28 e1       	ldi	r18, 0x18	; 24
    4586:	4d e9       	ldi	r20, 0x9D	; 157
    4588:	5a e1       	ldi	r21, 0x1A	; 26
    458a:	6e e7       	ldi	r22, 0x7E	; 126
    458c:	87 e0       	ldi	r24, 0x07	; 7
    458e:	0e 94 b9 12 	call	0x2572	; 0x2572 <print_icon>
    4592:	16 c0       	rjmp	.+44     	; 0x45c0 <lcd_uc1698u_main_screen+0x1f4>
    4594:	08 e2       	ldi	r16, 0x28	; 40
    4596:	28 e1       	ldi	r18, 0x18	; 24
    4598:	45 e2       	ldi	r20, 0x25	; 37
    459a:	5a e1       	ldi	r21, 0x1A	; 26
    459c:	6e e7       	ldi	r22, 0x7E	; 126
    459e:	87 e0       	ldi	r24, 0x07	; 7
    45a0:	0e 94 b9 12 	call	0x2572	; 0x2572 <print_icon>
    45a4:	0d c0       	rjmp	.+26     	; 0x45c0 <lcd_uc1698u_main_screen+0x1f4>
    45a6:	08 e2       	ldi	r16, 0x28	; 40
    45a8:	28 e1       	ldi	r18, 0x18	; 24
    45aa:	4d ea       	ldi	r20, 0xAD	; 173
    45ac:	59 e1       	ldi	r21, 0x19	; 25
    45ae:	6e e7       	ldi	r22, 0x7E	; 126
    45b0:	87 e0       	ldi	r24, 0x07	; 7
    45b2:	0e 94 b9 12 	call	0x2572	; 0x2572 <print_icon>
    45b6:	04 c0       	rjmp	.+8      	; 0x45c0 <lcd_uc1698u_main_screen+0x1f4>
    45b8:	10 92 4e 42 	sts	0x424E, r1	; 0x80424e <__data_end>
    45bc:	10 92 4f 42 	sts	0x424F, r1	; 0x80424f <__data_end+0x1>
    45c0:	10 92 73 42 	sts	0x4273, r1	; 0x804273 <smart_switch_delete_flag>
    45c4:	0e c0       	rjmp	.+28     	; 0x45e2 <lcd_uc1698u_main_screen+0x216>
    45c6:	e0 e4       	ldi	r30, 0x40	; 64
    45c8:	f4 e0       	ldi	r31, 0x04	; 4
    45ca:	84 81       	ldd	r24, Z+4	; 0x04
    45cc:	8b 7f       	andi	r24, 0xFB	; 251
    45ce:	84 83       	std	Z+4, r24	; 0x04
    45d0:	26 e9       	ldi	r18, 0x96	; 150
    45d2:	4e e1       	ldi	r20, 0x1E	; 30
    45d4:	68 e7       	ldi	r22, 0x78	; 120
    45d6:	87 e0       	ldi	r24, 0x07	; 7
    45d8:	0e 94 31 15 	call	0x2a62	; 0x2a62 <delete_rectangle>
    45dc:	81 e0       	ldi	r24, 0x01	; 1
    45de:	80 93 73 42 	sts	0x4273, r24	; 0x804273 <smart_switch_delete_flag>
    45e2:	10 92 74 42 	sts	0x4274, r1	; 0x804274 <smart_switch_icon_update_flag>
    45e6:	80 91 7c 42 	lds	r24, 0x427C	; 0x80427c <Service_alarm_flag>
    45ea:	81 11       	cpse	r24, r1
    45ec:	04 c0       	rjmp	.+8      	; 0x45f6 <lcd_uc1698u_main_screen+0x22a>
    45ee:	80 91 7b 42 	lds	r24, 0x427B	; 0x80427b <Service_alarm_flag_run>
    45f2:	88 23       	and	r24, r24
    45f4:	41 f0       	breq	.+16     	; 0x4606 <lcd_uc1698u_main_screen+0x23a>
    45f6:	00 e2       	ldi	r16, 0x20	; 32
    45f8:	2a e1       	ldi	r18, 0x1A	; 26
    45fa:	4a ef       	ldi	r20, 0xFA	; 250
    45fc:	5d e1       	ldi	r21, 0x1D	; 29
    45fe:	6c e7       	ldi	r22, 0x7C	; 124
    4600:	84 e1       	ldi	r24, 0x14	; 20
    4602:	0e 94 b9 12 	call	0x2572	; 0x2572 <print_icon>
    4606:	0f 91       	pop	r16
    4608:	08 95       	ret

0000460a <TCA0_PWM_init>:
    460a:	e0 e0       	ldi	r30, 0x00	; 0
    460c:	f4 e0       	ldi	r31, 0x04	; 4
    460e:	80 81       	ld	r24, Z
    4610:	81 60       	ori	r24, 0x01	; 1
    4612:	80 83       	st	Z, r24
    4614:	80 81       	ld	r24, Z
    4616:	82 60       	ori	r24, 0x02	; 2
    4618:	80 83       	st	Z, r24
    461a:	80 89       	ldd	r24, Z+16	; 0x10
    461c:	88 60       	ori	r24, 0x08	; 8
    461e:	80 8b       	std	Z+16, r24	; 0x10
    4620:	e0 e0       	ldi	r30, 0x00	; 0
    4622:	fa e0       	ldi	r31, 0x0A	; 10
    4624:	80 e8       	ldi	r24, 0x80	; 128
    4626:	9c e0       	ldi	r25, 0x0C	; 12
    4628:	86 a3       	std	Z+38, r24	; 0x26
    462a:	97 a3       	std	Z+39, r25	; 0x27
    462c:	10 a6       	std	Z+40, r1	; 0x28
    462e:	11 a6       	std	Z+41, r1	; 0x29
    4630:	10 a2       	std	Z+32, r1	; 0x20
    4632:	11 a2       	std	Z+33, r1	; 0x21
    4634:	81 81       	ldd	r24, Z+1	; 0x01
    4636:	80 61       	ori	r24, 0x10	; 16
    4638:	81 83       	std	Z+1, r24	; 0x01
    463a:	81 81       	ldd	r24, Z+1	; 0x01
    463c:	83 60       	ori	r24, 0x03	; 3
    463e:	81 83       	std	Z+1, r24	; 0x01
    4640:	80 81       	ld	r24, Z
    4642:	81 60       	ori	r24, 0x01	; 1
    4644:	80 83       	st	Z, r24
    4646:	80 81       	ld	r24, Z
    4648:	82 60       	ori	r24, 0x02	; 2
    464a:	80 83       	st	Z, r24
    464c:	08 95       	ret

0000464e <set_NVM_command_SPM>:
    464e:	9d e9       	ldi	r25, 0x9D	; 157
    4650:	94 bf       	out	0x34, r25	; 52
    4652:	80 93 00 10 	sts	0x1000, r24	; 0x801000 <__TEXT_REGION_LENGTH__+0x7e1000>
    4656:	08 95       	ret

00004658 <write_8t_data_in_eeprom_SPM>:
    4658:	1f 93       	push	r17
    465a:	cf 93       	push	r28
    465c:	df 93       	push	r29
    465e:	ec 01       	movw	r28, r24
    4660:	16 2f       	mov	r17, r22
    4662:	80 91 02 10 	lds	r24, 0x1002	; 0x801002 <__TEXT_REGION_LENGTH__+0x7e1002>
    4666:	81 fd       	sbrc	r24, 1
    4668:	fc cf       	rjmp	.-8      	; 0x4662 <write_8t_data_in_eeprom_SPM+0xa>
    466a:	83 e1       	ldi	r24, 0x13	; 19
    466c:	90 e0       	ldi	r25, 0x00	; 0
    466e:	0e 94 27 23 	call	0x464e	; 0x464e <set_NVM_command_SPM>
    4672:	dc 5e       	subi	r29, 0xEC	; 236
    4674:	18 83       	st	Y, r17
    4676:	80 e0       	ldi	r24, 0x00	; 0
    4678:	90 e0       	ldi	r25, 0x00	; 0
    467a:	0e 94 27 23 	call	0x464e	; 0x464e <set_NVM_command_SPM>
    467e:	df 91       	pop	r29
    4680:	cf 91       	pop	r28
    4682:	1f 91       	pop	r17
    4684:	08 95       	ret

00004686 <write_16t_data_in_eeprom_SPM>:
    4686:	0f 93       	push	r16
    4688:	1f 93       	push	r17
    468a:	cf 93       	push	r28
    468c:	df 93       	push	r29
    468e:	ec 01       	movw	r28, r24
    4690:	8b 01       	movw	r16, r22
    4692:	80 91 02 10 	lds	r24, 0x1002	; 0x801002 <__TEXT_REGION_LENGTH__+0x7e1002>
    4696:	81 fd       	sbrc	r24, 1
    4698:	fc cf       	rjmp	.-8      	; 0x4692 <write_16t_data_in_eeprom_SPM+0xc>
    469a:	83 e1       	ldi	r24, 0x13	; 19
    469c:	90 e0       	ldi	r25, 0x00	; 0
    469e:	0e 94 27 23 	call	0x464e	; 0x464e <set_NVM_command_SPM>
    46a2:	dc 5e       	subi	r29, 0xEC	; 236
    46a4:	08 83       	st	Y, r16
    46a6:	19 83       	std	Y+1, r17	; 0x01
    46a8:	80 e0       	ldi	r24, 0x00	; 0
    46aa:	90 e0       	ldi	r25, 0x00	; 0
    46ac:	0e 94 27 23 	call	0x464e	; 0x464e <set_NVM_command_SPM>
    46b0:	df 91       	pop	r29
    46b2:	cf 91       	pop	r28
    46b4:	1f 91       	pop	r17
    46b6:	0f 91       	pop	r16
    46b8:	08 95       	ret

000046ba <read_8t_data_in_eeprom_SPM>:
    46ba:	20 91 02 10 	lds	r18, 0x1002	; 0x801002 <__TEXT_REGION_LENGTH__+0x7e1002>
    46be:	0e 94 aa 2e 	call	0x5d54	; 0x5d54 <eeprom_read_byte>
    46c2:	08 95       	ret

000046c4 <ams_check>:
    46c4:	af 92       	push	r10
    46c6:	bf 92       	push	r11
    46c8:	cf 92       	push	r12
    46ca:	df 92       	push	r13
    46cc:	ef 92       	push	r14
    46ce:	ff 92       	push	r15
    46d0:	0f 93       	push	r16
    46d2:	1f 93       	push	r17
    46d4:	cf 93       	push	r28
    46d6:	df 93       	push	r29
    46d8:	81 e0       	ldi	r24, 0x01	; 1
    46da:	90 e0       	ldi	r25, 0x00	; 0
    46dc:	0e 94 5d 23 	call	0x46ba	; 0x46ba <read_8t_data_in_eeprom_SPM>
    46e0:	a8 2e       	mov	r10, r24
    46e2:	83 e0       	ldi	r24, 0x03	; 3
    46e4:	90 e0       	ldi	r25, 0x00	; 0
    46e6:	0e 94 5d 23 	call	0x46ba	; 0x46ba <read_8t_data_in_eeprom_SPM>
    46ea:	91 e0       	ldi	r25, 0x01	; 1
    46ec:	81 11       	cpse	r24, r1
    46ee:	01 c0       	rjmp	.+2      	; 0x46f2 <ams_check+0x2e>
    46f0:	90 e0       	ldi	r25, 0x00	; 0
    46f2:	90 93 c2 42 	sts	0x42C2, r25	; 0x8042c2 <previous_uc_ams_reset_flag>
    46f6:	00 e0       	ldi	r16, 0x00	; 0
    46f8:	c1 2c       	mov	r12, r1
    46fa:	d1 2c       	mov	r13, r1
    46fc:	76 01       	movw	r14, r12
    46fe:	b1 2c       	mov	r11, r1
    4700:	6d c0       	rjmp	.+218    	; 0x47dc <ams_check+0x118>
    4702:	81 e0       	ldi	r24, 0x01	; 1
    4704:	0e 94 36 11 	call	0x226c	; 0x226c <AMS_mmhg_average>
    4708:	60 93 be 42 	sts	0x42BE, r22	; 0x8042be <current_pressure_mmhg>
    470c:	70 93 bf 42 	sts	0x42BF, r23	; 0x8042bf <current_pressure_mmhg+0x1>
    4710:	80 93 c0 42 	sts	0x42C0, r24	; 0x8042c0 <current_pressure_mmhg+0x2>
    4714:	90 93 c1 42 	sts	0x42C1, r25	; 0x8042c1 <current_pressure_mmhg+0x3>
    4718:	80 91 c7 42 	lds	r24, 0x42C7	; 0x8042c7 <i2c_timeout_flag>
    471c:	88 23       	and	r24, r24
    471e:	79 f0       	breq	.+30     	; 0x473e <ams_check+0x7a>
    4720:	80 91 c4 42 	lds	r24, 0x42C4	; 0x8042c4 <timeout_count>
    4724:	90 91 c5 42 	lds	r25, 0x42C5	; 0x8042c5 <timeout_count+0x1>
    4728:	01 96       	adiw	r24, 0x01	; 1
    472a:	80 93 c4 42 	sts	0x42C4, r24	; 0x8042c4 <timeout_count>
    472e:	90 93 c5 42 	sts	0x42C5, r25	; 0x8042c5 <timeout_count+0x1>
    4732:	10 92 c7 42 	sts	0x42C7, r1	; 0x8042c7 <i2c_timeout_flag>
    4736:	8d ec       	ldi	r24, 0xCD	; 205
    4738:	90 e4       	ldi	r25, 0x40	; 64
    473a:	0e 94 da 0f 	call	0x1fb4	; 0x1fb4 <USART1_sendString>
    473e:	20 91 be 42 	lds	r18, 0x42BE	; 0x8042be <current_pressure_mmhg>
    4742:	30 91 bf 42 	lds	r19, 0x42BF	; 0x8042bf <current_pressure_mmhg+0x1>
    4746:	40 91 c0 42 	lds	r20, 0x42C0	; 0x8042c0 <current_pressure_mmhg+0x2>
    474a:	50 91 c1 42 	lds	r21, 0x42C1	; 0x8042c1 <current_pressure_mmhg+0x3>
    474e:	c7 01       	movw	r24, r14
    4750:	b6 01       	movw	r22, r12
    4752:	0e 94 24 2a 	call	0x5448	; 0x5448 <__cmpsf2>
    4756:	81 11       	cpse	r24, r1
    4758:	06 c0       	rjmp	.+12     	; 0x4766 <ams_check+0xa2>
    475a:	8d ed       	ldi	r24, 0xDD	; 221
    475c:	90 e4       	ldi	r25, 0x40	; 64
    475e:	0e 94 da 0f 	call	0x1fb4	; 0x1fb4 <USART1_sendString>
    4762:	1f 5f       	subi	r17, 0xFF	; 255
    4764:	05 c0       	rjmp	.+10     	; 0x4770 <ams_check+0xac>
    4766:	88 ef       	ldi	r24, 0xF8	; 248
    4768:	90 e4       	ldi	r25, 0x40	; 64
    476a:	0e 94 da 0f 	call	0x1fb4	; 0x1fb4 <USART1_sendString>
    476e:	10 e0       	ldi	r17, 0x00	; 0
    4770:	c0 90 be 42 	lds	r12, 0x42BE	; 0x8042be <current_pressure_mmhg>
    4774:	d0 90 bf 42 	lds	r13, 0x42BF	; 0x8042bf <current_pressure_mmhg+0x1>
    4778:	e0 90 c0 42 	lds	r14, 0x42C0	; 0x8042c0 <current_pressure_mmhg+0x2>
    477c:	f0 90 c1 42 	lds	r15, 0x42C1	; 0x8042c1 <current_pressure_mmhg+0x3>
    4780:	21 96       	adiw	r28, 0x01	; 1
    4782:	03 c0       	rjmp	.+6      	; 0x478a <ams_check+0xc6>
    4784:	c0 e0       	ldi	r28, 0x00	; 0
    4786:	d0 e0       	ldi	r29, 0x00	; 0
    4788:	10 e0       	ldi	r17, 0x00	; 0
    478a:	ca 30       	cpi	r28, 0x0A	; 10
    478c:	d1 05       	cpc	r29, r1
    478e:	0c f4       	brge	.+2      	; 0x4792 <ams_check+0xce>
    4790:	b8 cf       	rjmp	.-144    	; 0x4702 <ams_check+0x3e>
    4792:	80 91 c4 42 	lds	r24, 0x42C4	; 0x8042c4 <timeout_count>
    4796:	90 91 c5 42 	lds	r25, 0x42C5	; 0x8042c5 <timeout_count+0x1>
    479a:	04 97       	sbiw	r24, 0x04	; 4
    479c:	14 f4       	brge	.+4      	; 0x47a2 <ams_check+0xde>
    479e:	16 30       	cpi	r17, 0x06	; 6
    47a0:	40 f0       	brcs	.+16     	; 0x47b2 <ams_check+0xee>
    47a2:	0e 94 4a 17 	call	0x2e94	; 0x2e94 <ams_reset>
    47a6:	0f 5f       	subi	r16, 0xFF	; 255
    47a8:	10 92 c4 42 	sts	0x42C4, r1	; 0x8042c4 <timeout_count>
    47ac:	10 92 c5 42 	sts	0x42C5, r1	; 0x8042c5 <timeout_count+0x1>
    47b0:	15 c0       	rjmp	.+42     	; 0x47dc <ams_check+0x118>
    47b2:	10 92 c4 42 	sts	0x42C4, r1	; 0x8042c4 <timeout_count>
    47b6:	10 92 c5 42 	sts	0x42C5, r1	; 0x8042c5 <timeout_count+0x1>
    47ba:	10 92 c2 42 	sts	0x42C2, r1	; 0x8042c2 <previous_uc_ams_reset_flag>
    47be:	60 e0       	ldi	r22, 0x00	; 0
    47c0:	81 e0       	ldi	r24, 0x01	; 1
    47c2:	90 e0       	ldi	r25, 0x00	; 0
    47c4:	0e 94 2c 23 	call	0x4658	; 0x4658 <write_8t_data_in_eeprom_SPM>
    47c8:	60 91 c2 42 	lds	r22, 0x42C2	; 0x8042c2 <previous_uc_ams_reset_flag>
    47cc:	83 e0       	ldi	r24, 0x03	; 3
    47ce:	90 e0       	ldi	r25, 0x00	; 0
    47d0:	0e 94 2c 23 	call	0x4658	; 0x4658 <write_8t_data_in_eeprom_SPM>
    47d4:	00 e0       	ldi	r16, 0x00	; 0
    47d6:	bb 24       	eor	r11, r11
    47d8:	b3 94       	inc	r11
    47da:	a1 2c       	mov	r10, r1
    47dc:	b1 10       	cpse	r11, r1
    47de:	02 c0       	rjmp	.+4      	; 0x47e4 <ams_check+0x120>
    47e0:	03 30       	cpi	r16, 0x03	; 3
    47e2:	80 f2       	brcs	.-96     	; 0x4784 <ams_check+0xc0>
    47e4:	03 30       	cpi	r16, 0x03	; 3
    47e6:	88 f1       	brcs	.+98     	; 0x484a <ams_check+0x186>
    47e8:	61 e0       	ldi	r22, 0x01	; 1
    47ea:	6a 0d       	add	r22, r10
    47ec:	81 e0       	ldi	r24, 0x01	; 1
    47ee:	80 93 c2 42 	sts	0x42C2, r24	; 0x8042c2 <previous_uc_ams_reset_flag>
    47f2:	81 e0       	ldi	r24, 0x01	; 1
    47f4:	90 e0       	ldi	r25, 0x00	; 0
    47f6:	0e 94 2c 23 	call	0x4658	; 0x4658 <write_8t_data_in_eeprom_SPM>
    47fa:	60 91 c2 42 	lds	r22, 0x42C2	; 0x8042c2 <previous_uc_ams_reset_flag>
    47fe:	83 e0       	ldi	r24, 0x03	; 3
    4800:	90 e0       	ldi	r25, 0x00	; 0
    4802:	0e 94 2c 23 	call	0x4658	; 0x4658 <write_8t_data_in_eeprom_SPM>
    4806:	8f e2       	ldi	r24, 0x2F	; 47
    4808:	95 e7       	ldi	r25, 0x75	; 117
    480a:	01 97       	sbiw	r24, 0x01	; 1
    480c:	f1 f7       	brne	.-4      	; 0x480a <ams_check+0x146>
    480e:	00 c0       	rjmp	.+0      	; 0x4810 <ams_check+0x14c>
    4810:	00 00       	nop
    4812:	60 91 8a 42 	lds	r22, 0x428A	; 0x80428a <smart_switch_mode_flag>
    4816:	82 e0       	ldi	r24, 0x02	; 2
    4818:	90 e0       	ldi	r25, 0x00	; 0
    481a:	0e 94 2c 23 	call	0x4658	; 0x4658 <write_8t_data_in_eeprom_SPM>
    481e:	60 91 6a 42 	lds	r22, 0x426A	; 0x80426a <power_save_mode_on_flag>
    4822:	86 e0       	ldi	r24, 0x06	; 6
    4824:	90 e0       	ldi	r25, 0x00	; 0
    4826:	0e 94 2c 23 	call	0x4658	; 0x4658 <write_8t_data_in_eeprom_SPM>
    482a:	61 e0       	ldi	r22, 0x01	; 1
    482c:	85 e0       	ldi	r24, 0x05	; 5
    482e:	90 e0       	ldi	r25, 0x00	; 0
    4830:	0e 94 2c 23 	call	0x4658	; 0x4658 <write_8t_data_in_eeprom_SPM>
    4834:	8f e2       	ldi	r24, 0x2F	; 47
    4836:	95 e7       	ldi	r25, 0x75	; 117
    4838:	01 97       	sbiw	r24, 0x01	; 1
    483a:	f1 f7       	brne	.-4      	; 0x4838 <ams_check+0x174>
    483c:	00 c0       	rjmp	.+0      	; 0x483e <ams_check+0x17a>
    483e:	00 00       	nop
    4840:	61 e0       	ldi	r22, 0x01	; 1
    4842:	81 e4       	ldi	r24, 0x41	; 65
    4844:	90 e0       	ldi	r25, 0x00	; 0
    4846:	0e 94 be 2e 	call	0x5d7c	; 0x5d7c <ccp_write_io>
    484a:	df 91       	pop	r29
    484c:	cf 91       	pop	r28
    484e:	1f 91       	pop	r17
    4850:	0f 91       	pop	r16
    4852:	ff 90       	pop	r15
    4854:	ef 90       	pop	r14
    4856:	df 90       	pop	r13
    4858:	cf 90       	pop	r12
    485a:	bf 90       	pop	r11
    485c:	af 90       	pop	r10
    485e:	08 95       	ret

00004860 <STP>:
    4860:	80 e0       	ldi	r24, 0x00	; 0
    4862:	0e 94 ae 15 	call	0x2b5c	; 0x2b5c <MOTOR_ON_OFF>
    4866:	0e 94 42 17 	call	0x2e84	; 0x2e84 <stp_foot_switch_check>
    486a:	0e 94 6c 1e 	call	0x3cd8	; 0x3cd8 <power_on_screen>
    486e:	0e 94 4a 17 	call	0x2e94	; 0x2e94 <ams_reset>
    4872:	0e 94 62 23 	call	0x46c4	; 0x46c4 <ams_check>
    4876:	08 95       	ret

00004878 <read_16t_data_in_eeprom_SPM>:
    4878:	20 91 02 10 	lds	r18, 0x1002	; 0x801002 <__TEXT_REGION_LENGTH__+0x7e1002>
    487c:	0e 94 b9 2e 	call	0x5d72	; 0x5d72 <eeprom_read_word>
    4880:	08 95       	ret

00004882 <fetch_lpm_duty_from_EEPROM>:
    4882:	89 e1       	ldi	r24, 0x19	; 25
    4884:	90 e0       	ldi	r25, 0x00	; 0
    4886:	0e 94 3c 24 	call	0x4878	; 0x4878 <read_16t_data_in_eeprom_SPM>
    488a:	80 93 11 40 	sts	0x4011, r24	; 0x804011 <LPM_20>
    488e:	90 93 12 40 	sts	0x4012, r25	; 0x804012 <LPM_20+0x1>
    4892:	8b e1       	ldi	r24, 0x1B	; 27
    4894:	90 e0       	ldi	r25, 0x00	; 0
    4896:	0e 94 3c 24 	call	0x4878	; 0x4878 <read_16t_data_in_eeprom_SPM>
    489a:	80 93 0f 40 	sts	0x400F, r24	; 0x80400f <LPM_30>
    489e:	90 93 10 40 	sts	0x4010, r25	; 0x804010 <LPM_30+0x1>
    48a2:	8d e1       	ldi	r24, 0x1D	; 29
    48a4:	90 e0       	ldi	r25, 0x00	; 0
    48a6:	0e 94 3c 24 	call	0x4878	; 0x4878 <read_16t_data_in_eeprom_SPM>
    48aa:	80 93 0d 40 	sts	0x400D, r24	; 0x80400d <LPM_40>
    48ae:	90 93 0e 40 	sts	0x400E, r25	; 0x80400e <LPM_40+0x1>
    48b2:	8f e1       	ldi	r24, 0x1F	; 31
    48b4:	90 e0       	ldi	r25, 0x00	; 0
    48b6:	0e 94 3c 24 	call	0x4878	; 0x4878 <read_16t_data_in_eeprom_SPM>
    48ba:	80 93 0b 40 	sts	0x400B, r24	; 0x80400b <LPM_50>
    48be:	90 93 0c 40 	sts	0x400C, r25	; 0x80400c <LPM_50+0x1>
    48c2:	81 e2       	ldi	r24, 0x21	; 33
    48c4:	90 e0       	ldi	r25, 0x00	; 0
    48c6:	0e 94 3c 24 	call	0x4878	; 0x4878 <read_16t_data_in_eeprom_SPM>
    48ca:	80 93 09 40 	sts	0x4009, r24	; 0x804009 <LPM_60>
    48ce:	90 93 0a 40 	sts	0x400A, r25	; 0x80400a <LPM_60+0x1>
    48d2:	08 95       	ret

000048d4 <eeprom_init_read>:
    48d4:	0e 94 41 24 	call	0x4882	; 0x4882 <fetch_lpm_duty_from_EEPROM>
    48d8:	85 e0       	ldi	r24, 0x05	; 5
    48da:	90 e0       	ldi	r25, 0x00	; 0
    48dc:	0e 94 5d 23 	call	0x46ba	; 0x46ba <read_8t_data_in_eeprom_SPM>
    48e0:	91 e0       	ldi	r25, 0x01	; 1
    48e2:	81 11       	cpse	r24, r1
    48e4:	01 c0       	rjmp	.+2      	; 0x48e8 <eeprom_init_read+0x14>
    48e6:	90 e0       	ldi	r25, 0x00	; 0
    48e8:	90 93 c3 42 	sts	0x42C3, r25	; 0x8042c3 <previous_soft_hard_reset_flag>
    48ec:	60 e0       	ldi	r22, 0x00	; 0
    48ee:	85 e0       	ldi	r24, 0x05	; 5
    48f0:	90 e0       	ldi	r25, 0x00	; 0
    48f2:	0e 94 2c 23 	call	0x4658	; 0x4658 <write_8t_data_in_eeprom_SPM>
    48f6:	83 e0       	ldi	r24, 0x03	; 3
    48f8:	90 e0       	ldi	r25, 0x00	; 0
    48fa:	0e 94 5d 23 	call	0x46ba	; 0x46ba <read_8t_data_in_eeprom_SPM>
    48fe:	91 e0       	ldi	r25, 0x01	; 1
    4900:	81 11       	cpse	r24, r1
    4902:	01 c0       	rjmp	.+2      	; 0x4906 <eeprom_init_read+0x32>
    4904:	90 e0       	ldi	r25, 0x00	; 0
    4906:	90 93 c2 42 	sts	0x42C2, r25	; 0x8042c2 <previous_uc_ams_reset_flag>
    490a:	99 23       	and	r25, r25
    490c:	41 f0       	breq	.+16     	; 0x491e <eeprom_init_read+0x4a>
    490e:	82 e0       	ldi	r24, 0x02	; 2
    4910:	90 e0       	ldi	r25, 0x00	; 0
    4912:	0e 94 5d 23 	call	0x46ba	; 0x46ba <read_8t_data_in_eeprom_SPM>
    4916:	86 e0       	ldi	r24, 0x06	; 6
    4918:	90 e0       	ldi	r25, 0x00	; 0
    491a:	0e 94 5d 23 	call	0x46ba	; 0x46ba <read_8t_data_in_eeprom_SPM>
    491e:	08 95       	ret

00004920 <read_long_data_in_eeprom_SPM>:
    4920:	20 91 02 10 	lds	r18, 0x1002	; 0x801002 <__TEXT_REGION_LENGTH__+0x7e1002>
    4924:	0e 94 b2 2e 	call	0x5d64	; 0x5d64 <eeprom_read_dword>
    4928:	08 95       	ret

0000492a <display_print_function_numerics>:
    492a:	cf 92       	push	r12
    492c:	df 92       	push	r13
    492e:	ef 92       	push	r14
    4930:	ff 92       	push	r15
    4932:	0f 93       	push	r16
    4934:	85 e1       	ldi	r24, 0x15	; 21
    4936:	90 e0       	ldi	r25, 0x00	; 0
    4938:	0e 94 90 24 	call	0x4920	; 0x4920 <read_long_data_in_eeprom_SPM>
    493c:	61 15       	cp	r22, r1
    493e:	24 ea       	ldi	r18, 0xA4	; 164
    4940:	72 07       	cpc	r23, r18
    4942:	23 e9       	ldi	r18, 0x93	; 147
    4944:	82 07       	cpc	r24, r18
    4946:	26 ed       	ldi	r18, 0xD6	; 214
    4948:	92 07       	cpc	r25, r18
    494a:	20 f0       	brcs	.+8      	; 0x4954 <display_print_function_numerics+0x2a>
    494c:	21 e0       	ldi	r18, 0x01	; 1
    494e:	20 93 7c 42 	sts	0x427C, r18	; 0x80427c <Service_alarm_flag>
    4952:	02 c0       	rjmp	.+4      	; 0x4958 <display_print_function_numerics+0x2e>
    4954:	10 92 7c 42 	sts	0x427C, r1	; 0x80427c <Service_alarm_flag>
    4958:	0f 2e       	mov	r0, r31
    495a:	f0 e8       	ldi	r31, 0x80	; 128
    495c:	cf 2e       	mov	r12, r31
    495e:	fe ee       	ldi	r31, 0xEE	; 238
    4960:	df 2e       	mov	r13, r31
    4962:	f6 e3       	ldi	r31, 0x36	; 54
    4964:	ef 2e       	mov	r14, r31
    4966:	f1 2c       	mov	r15, r1
    4968:	f0 2d       	mov	r31, r0
    496a:	a7 01       	movw	r20, r14
    496c:	96 01       	movw	r18, r12
    496e:	0e 94 09 2c 	call	0x5812	; 0x5812 <__udivmodsi4>
    4972:	04 e0       	ldi	r16, 0x04	; 4
    4974:	6b e2       	ldi	r22, 0x2B	; 43
    4976:	86 e4       	ldi	r24, 0x46	; 70
    4978:	0e 94 3a 20 	call	0x4074	; 0x4074 <printNumScreen_RightJustified>
    497c:	81 e1       	ldi	r24, 0x11	; 17
    497e:	90 e0       	ldi	r25, 0x00	; 0
    4980:	0e 94 90 24 	call	0x4920	; 0x4920 <read_long_data_in_eeprom_SPM>
    4984:	a7 01       	movw	r20, r14
    4986:	96 01       	movw	r18, r12
    4988:	0e 94 09 2c 	call	0x5812	; 0x5812 <__udivmodsi4>
    498c:	67 e6       	ldi	r22, 0x67	; 103
    498e:	86 e4       	ldi	r24, 0x46	; 70
    4990:	0e 94 3a 20 	call	0x4074	; 0x4074 <printNumScreen_RightJustified>
    4994:	0f 91       	pop	r16
    4996:	ff 90       	pop	r15
    4998:	ef 90       	pop	r14
    499a:	df 90       	pop	r13
    499c:	cf 90       	pop	r12
    499e:	08 95       	ret

000049a0 <write_data_in_eeprom_SPM_32bits>:
    49a0:	af 92       	push	r10
    49a2:	bf 92       	push	r11
    49a4:	cf 92       	push	r12
    49a6:	df 92       	push	r13
    49a8:	ef 92       	push	r14
    49aa:	ff 92       	push	r15
    49ac:	0f 93       	push	r16
    49ae:	1f 93       	push	r17
    49b0:	cf 93       	push	r28
    49b2:	df 93       	push	r29
    49b4:	ec 01       	movw	r28, r24
    49b6:	6a 01       	movw	r12, r20
    49b8:	7b 01       	movw	r14, r22
    49ba:	5c 01       	movw	r10, r24
    49bc:	8f ef       	ldi	r24, 0xFF	; 255
    49be:	a8 1a       	sub	r10, r24
    49c0:	b8 0a       	sbc	r11, r24
    49c2:	64 2f       	mov	r22, r20
    49c4:	ce 01       	movw	r24, r28
    49c6:	0e 94 2c 23 	call	0x4658	; 0x4658 <write_8t_data_in_eeprom_SPM>
    49ca:	6d 2d       	mov	r22, r13
    49cc:	8e 01       	movw	r16, r28
    49ce:	0e 5f       	subi	r16, 0xFE	; 254
    49d0:	1f 4f       	sbci	r17, 0xFF	; 255
    49d2:	c5 01       	movw	r24, r10
    49d4:	0e 94 2c 23 	call	0x4658	; 0x4658 <write_8t_data_in_eeprom_SPM>
    49d8:	6e 2d       	mov	r22, r14
    49da:	23 96       	adiw	r28, 0x03	; 3
    49dc:	c8 01       	movw	r24, r16
    49de:	0e 94 2c 23 	call	0x4658	; 0x4658 <write_8t_data_in_eeprom_SPM>
    49e2:	6f 2d       	mov	r22, r15
    49e4:	77 27       	eor	r23, r23
    49e6:	88 27       	eor	r24, r24
    49e8:	99 27       	eor	r25, r25
    49ea:	ce 01       	movw	r24, r28
    49ec:	0e 94 2c 23 	call	0x4658	; 0x4658 <write_8t_data_in_eeprom_SPM>
    49f0:	df 91       	pop	r29
    49f2:	cf 91       	pop	r28
    49f4:	1f 91       	pop	r17
    49f6:	0f 91       	pop	r16
    49f8:	ff 90       	pop	r15
    49fa:	ef 90       	pop	r14
    49fc:	df 90       	pop	r13
    49fe:	cf 90       	pop	r12
    4a00:	bf 90       	pop	r11
    4a02:	af 90       	pop	r10
    4a04:	08 95       	ret

00004a06 <reset_time>:
    4a06:	cf 92       	push	r12
    4a08:	df 92       	push	r13
    4a0a:	ef 92       	push	r14
    4a0c:	ff 92       	push	r15
    4a0e:	0f 93       	push	r16
    4a10:	c0 90 a2 42 	lds	r12, 0x42A2	; 0x8042a2 <millis>
    4a14:	d0 90 a3 42 	lds	r13, 0x42A3	; 0x8042a3 <millis+0x1>
    4a18:	e0 90 a4 42 	lds	r14, 0x42A4	; 0x8042a4 <millis+0x2>
    4a1c:	f0 90 a5 42 	lds	r15, 0x42A5	; 0x8042a5 <millis+0x3>
    4a20:	89 c0       	rjmp	.+274    	; 0x4b34 <reset_time+0x12e>
    4a22:	e0 e4       	ldi	r30, 0x40	; 64
    4a24:	f4 e0       	ldi	r31, 0x04	; 4
    4a26:	80 85       	ldd	r24, Z+8	; 0x08
    4a28:	80 74       	andi	r24, 0x40	; 64
    4a2a:	80 87       	std	Z+8, r24	; 0x08
    4a2c:	88 23       	and	r24, r24
    4a2e:	09 f4       	brne	.+2      	; 0x4a32 <reset_time+0x2c>
    4a30:	81 c0       	rjmp	.+258    	; 0x4b34 <reset_time+0x12e>
    4a32:	e0 e8       	ldi	r30, 0x80	; 128
    4a34:	f4 e0       	ldi	r31, 0x04	; 4
    4a36:	80 85       	ldd	r24, Z+8	; 0x08
    4a38:	84 70       	andi	r24, 0x04	; 4
    4a3a:	80 87       	std	Z+8, r24	; 0x08
    4a3c:	88 23       	and	r24, r24
    4a3e:	09 f4       	brne	.+2      	; 0x4a42 <reset_time+0x3c>
    4a40:	79 c0       	rjmp	.+242    	; 0x4b34 <reset_time+0x12e>
    4a42:	2f ef       	ldi	r18, 0xFF	; 255
    4a44:	3d e3       	ldi	r19, 0x3D	; 61
    4a46:	89 e4       	ldi	r24, 0x49	; 73
    4a48:	21 50       	subi	r18, 0x01	; 1
    4a4a:	30 40       	sbci	r19, 0x00	; 0
    4a4c:	80 40       	sbci	r24, 0x00	; 0
    4a4e:	e1 f7       	brne	.-8      	; 0x4a48 <reset_time+0x42>
    4a50:	00 c0       	rjmp	.+0      	; 0x4a52 <reset_time+0x4c>
    4a52:	00 00       	nop
    4a54:	26 e9       	ldi	r18, 0x96	; 150
    4a56:	40 e5       	ldi	r20, 0x50	; 80
    4a58:	60 e0       	ldi	r22, 0x00	; 0
    4a5a:	80 e0       	ldi	r24, 0x00	; 0
    4a5c:	0e 94 31 15 	call	0x2a62	; 0x2a62 <delete_rectangle>
    4a60:	00 e3       	ldi	r16, 0x30	; 48
    4a62:	24 e1       	ldi	r18, 0x14	; 20
    4a64:	42 e1       	ldi	r20, 0x12	; 18
    4a66:	54 e0       	ldi	r21, 0x04	; 4
    4a68:	69 e4       	ldi	r22, 0x49	; 73
    4a6a:	85 e0       	ldi	r24, 0x05	; 5
    4a6c:	0e 94 b9 12 	call	0x2572	; 0x2572 <print_icon>
    4a70:	00 e4       	ldi	r16, 0x40	; 64
    4a72:	2e e1       	ldi	r18, 0x1E	; 30
    4a74:	42 e2       	ldi	r20, 0x22	; 34
    4a76:	53 e0       	ldi	r21, 0x03	; 3
    4a78:	69 e4       	ldi	r22, 0x49	; 73
    4a7a:	86 e1       	ldi	r24, 0x16	; 22
    4a7c:	0e 94 b9 12 	call	0x2572	; 0x2572 <print_icon>
    4a80:	08 e1       	ldi	r16, 0x18	; 24
    4a82:	2e e1       	ldi	r18, 0x1E	; 30
    4a84:	48 ec       	ldi	r20, 0xC8	; 200
    4a86:	52 e0       	ldi	r21, 0x02	; 2
    4a88:	69 e4       	ldi	r22, 0x49	; 73
    4a8a:	8a e2       	ldi	r24, 0x2A	; 42
    4a8c:	0e 94 b9 12 	call	0x2572	; 0x2572 <print_icon>
    4a90:	00 e4       	ldi	r16, 0x40	; 64
    4a92:	2e e1       	ldi	r18, 0x1E	; 30
    4a94:	48 ed       	ldi	r20, 0xD8	; 216
    4a96:	51 e0       	ldi	r21, 0x01	; 1
    4a98:	69 e4       	ldi	r22, 0x49	; 73
    4a9a:	82 e3       	ldi	r24, 0x32	; 50
    4a9c:	0e 94 b9 12 	call	0x2572	; 0x2572 <print_icon>
    4aa0:	2e e1       	ldi	r18, 0x1E	; 30
    4aa2:	48 ee       	ldi	r20, 0xE8	; 232
    4aa4:	50 e0       	ldi	r21, 0x00	; 0
    4aa6:	6d e5       	ldi	r22, 0x5D	; 93
    4aa8:	86 e0       	ldi	r24, 0x06	; 6
    4aaa:	0e 94 b9 12 	call	0x2572	; 0x2572 <print_icon>
    4aae:	0e 94 16 1b 	call	0x362c	; 0x362c <clear_all_keypad_flags>
    4ab2:	80 91 89 42 	lds	r24, 0x4289	; 0x804289 <unit_button_pressed_flag>
    4ab6:	81 11       	cpse	r24, r1
    4ab8:	10 c0       	rjmp	.+32     	; 0x4ada <reset_time+0xd4>
    4aba:	90 91 6a 42 	lds	r25, 0x426A	; 0x80426a <power_save_mode_on_flag>
    4abe:	91 11       	cpse	r25, r1
    4ac0:	0c c0       	rjmp	.+24     	; 0x4ada <reset_time+0xd4>
    4ac2:	90 91 86 42 	lds	r25, 0x4286	; 0x804286 <play_pause_button_press_flag>
    4ac6:	91 11       	cpse	r25, r1
    4ac8:	08 c0       	rjmp	.+16     	; 0x4ada <reset_time+0xd4>
    4aca:	90 91 8a 42 	lds	r25, 0x428A	; 0x80428a <smart_switch_mode_flag>
    4ace:	91 11       	cpse	r25, r1
    4ad0:	04 c0       	rjmp	.+8      	; 0x4ada <reset_time+0xd4>
    4ad2:	90 91 88 42 	lds	r25, 0x4288	; 0x804288 <speed_button_press_flag>
    4ad6:	99 23       	and	r25, r25
    4ad8:	61 f3       	breq	.-40     	; 0x4ab2 <reset_time+0xac>
    4ada:	90 91 8a 42 	lds	r25, 0x428A	; 0x80428a <smart_switch_mode_flag>
    4ade:	99 23       	and	r25, r25
    4ae0:	49 f1       	breq	.+82     	; 0x4b34 <reset_time+0x12e>
    4ae2:	10 92 8a 42 	sts	0x428A, r1	; 0x80428a <smart_switch_mode_flag>
    4ae6:	81 11       	cpse	r24, r1
    4ae8:	0c c0       	rjmp	.+24     	; 0x4b02 <reset_time+0xfc>
    4aea:	90 91 6a 42 	lds	r25, 0x426A	; 0x80426a <power_save_mode_on_flag>
    4aee:	91 11       	cpse	r25, r1
    4af0:	08 c0       	rjmp	.+16     	; 0x4b02 <reset_time+0xfc>
    4af2:	90 91 86 42 	lds	r25, 0x4286	; 0x804286 <play_pause_button_press_flag>
    4af6:	91 11       	cpse	r25, r1
    4af8:	04 c0       	rjmp	.+8      	; 0x4b02 <reset_time+0xfc>
    4afa:	90 91 88 42 	lds	r25, 0x4288	; 0x804288 <speed_button_press_flag>
    4afe:	99 23       	and	r25, r25
    4b00:	91 f3       	breq	.-28     	; 0x4ae6 <reset_time+0xe0>
    4b02:	80 91 86 42 	lds	r24, 0x4286	; 0x804286 <play_pause_button_press_flag>
    4b06:	88 23       	and	r24, r24
    4b08:	a9 f0       	breq	.+42     	; 0x4b34 <reset_time+0x12e>
    4b0a:	10 92 86 42 	sts	0x4286, r1	; 0x804286 <play_pause_button_press_flag>
    4b0e:	40 e0       	ldi	r20, 0x00	; 0
    4b10:	50 e0       	ldi	r21, 0x00	; 0
    4b12:	ba 01       	movw	r22, r20
    4b14:	85 e1       	ldi	r24, 0x15	; 21
    4b16:	90 e0       	ldi	r25, 0x00	; 0
    4b18:	0e 94 d0 24 	call	0x49a0	; 0x49a0 <write_data_in_eeprom_SPM_32bits>
    4b1c:	10 92 7c 42 	sts	0x427C, r1	; 0x80427c <Service_alarm_flag>
    4b20:	26 e9       	ldi	r18, 0x96	; 150
    4b22:	40 e5       	ldi	r20, 0x50	; 80
    4b24:	60 e0       	ldi	r22, 0x00	; 0
    4b26:	80 e0       	ldi	r24, 0x00	; 0
    4b28:	0e 94 31 15 	call	0x2a62	; 0x2a62 <delete_rectangle>
    4b2c:	0e 94 b2 25 	call	0x4b64	; 0x4b64 <display_runTime_serviceTime>
    4b30:	0e 94 16 1b 	call	0x362c	; 0x362c <clear_all_keypad_flags>
    4b34:	80 91 a2 42 	lds	r24, 0x42A2	; 0x8042a2 <millis>
    4b38:	90 91 a3 42 	lds	r25, 0x42A3	; 0x8042a3 <millis+0x1>
    4b3c:	96 01       	movw	r18, r12
    4b3e:	28 1b       	sub	r18, r24
    4b40:	39 0b       	sbc	r19, r25
    4b42:	c9 01       	movw	r24, r18
    4b44:	81 36       	cpi	r24, 0x61	; 97
    4b46:	30 ef       	ldi	r19, 0xF0	; 240
    4b48:	93 07       	cpc	r25, r19
    4b4a:	24 f0       	brlt	.+8      	; 0x4b54 <reset_time+0x14e>
    4b4c:	80 3a       	cpi	r24, 0xA0	; 160
    4b4e:	9f 40       	sbci	r25, 0x0F	; 15
    4b50:	0c f4       	brge	.+2      	; 0x4b54 <reset_time+0x14e>
    4b52:	67 cf       	rjmp	.-306    	; 0x4a22 <reset_time+0x1c>
    4b54:	0e 94 16 1b 	call	0x362c	; 0x362c <clear_all_keypad_flags>
    4b58:	0f 91       	pop	r16
    4b5a:	ff 90       	pop	r15
    4b5c:	ef 90       	pop	r14
    4b5e:	df 90       	pop	r13
    4b60:	cf 90       	pop	r12
    4b62:	08 95       	ret

00004b64 <display_runTime_serviceTime>:
    4b64:	0f 93       	push	r16
    4b66:	26 e9       	ldi	r18, 0x96	; 150
    4b68:	46 e4       	ldi	r20, 0x46	; 70
    4b6a:	60 e0       	ldi	r22, 0x00	; 0
    4b6c:	80 e0       	ldi	r24, 0x00	; 0
    4b6e:	0e 94 31 15 	call	0x2a62	; 0x2a62 <delete_rectangle>
    4b72:	00 e4       	ldi	r16, 0x40	; 64
    4b74:	2e e1       	ldi	r18, 0x1E	; 30
    4b76:	4a e3       	ldi	r20, 0x3A	; 58
    4b78:	59 e0       	ldi	r21, 0x09	; 9
    4b7a:	6b e2       	ldi	r22, 0x2B	; 43
    4b7c:	81 e0       	ldi	r24, 0x01	; 1
    4b7e:	0e 94 b9 12 	call	0x2572	; 0x2572 <print_icon>
    4b82:	00 e3       	ldi	r16, 0x30	; 48
    4b84:	2e e1       	ldi	r18, 0x1E	; 30
    4b86:	46 e8       	ldi	r20, 0x86	; 134
    4b88:	58 e0       	ldi	r21, 0x08	; 8
    4b8a:	6b e2       	ldi	r22, 0x2B	; 43
    4b8c:	87 e1       	ldi	r24, 0x17	; 23
    4b8e:	0e 94 b9 12 	call	0x2572	; 0x2572 <print_icon>
    4b92:	2e e1       	ldi	r18, 0x1E	; 30
    4b94:	42 ed       	ldi	r20, 0xD2	; 210
    4b96:	57 e0       	ldi	r21, 0x07	; 7
    4b98:	67 e6       	ldi	r22, 0x67	; 103
    4b9a:	81 e0       	ldi	r24, 0x01	; 1
    4b9c:	0e 94 b9 12 	call	0x2572	; 0x2572 <print_icon>
    4ba0:	00 e2       	ldi	r16, 0x20	; 32
    4ba2:	2e e1       	ldi	r18, 0x1E	; 30
    4ba4:	4a e5       	ldi	r20, 0x5A	; 90
    4ba6:	57 e0       	ldi	r21, 0x07	; 7
    4ba8:	67 e6       	ldi	r22, 0x67	; 103
    4baa:	81 e1       	ldi	r24, 0x11	; 17
    4bac:	0e 94 b9 12 	call	0x2572	; 0x2572 <print_icon>
    4bb0:	00 e3       	ldi	r16, 0x30	; 48
    4bb2:	2e e1       	ldi	r18, 0x1E	; 30
    4bb4:	46 e8       	ldi	r20, 0x86	; 134
    4bb6:	58 e0       	ldi	r21, 0x08	; 8
    4bb8:	67 e6       	ldi	r22, 0x67	; 103
    4bba:	8c e1       	ldi	r24, 0x1C	; 28
    4bbc:	0e 94 b9 12 	call	0x2572	; 0x2572 <print_icon>
    4bc0:	0e 94 95 24 	call	0x492a	; 0x492a <display_print_function_numerics>
    4bc4:	0e 94 03 25 	call	0x4a06	; 0x4a06 <reset_time>
    4bc8:	26 e9       	ldi	r18, 0x96	; 150
    4bca:	40 e5       	ldi	r20, 0x50	; 80
    4bcc:	60 e0       	ldi	r22, 0x00	; 0
    4bce:	80 e0       	ldi	r24, 0x00	; 0
    4bd0:	0e 94 31 15 	call	0x2a62	; 0x2a62 <delete_rectangle>
    4bd4:	0f 91       	pop	r16
    4bd6:	08 95       	ret

00004bd8 <calcutale_run_service_time>:
    4bd8:	cf 92       	push	r12
    4bda:	df 92       	push	r13
    4bdc:	ef 92       	push	r14
    4bde:	ff 92       	push	r15
    4be0:	80 91 a2 42 	lds	r24, 0x42A2	; 0x8042a2 <millis>
    4be4:	90 91 a3 42 	lds	r25, 0x42A3	; 0x8042a3 <millis+0x1>
    4be8:	a0 91 a4 42 	lds	r26, 0x42A4	; 0x8042a4 <millis+0x2>
    4bec:	b0 91 a5 42 	lds	r27, 0x42A5	; 0x8042a5 <millis+0x3>
    4bf0:	40 91 8b 42 	lds	r20, 0x428B	; 0x80428b <g_currentMillis_runTime>
    4bf4:	50 91 8c 42 	lds	r21, 0x428C	; 0x80428c <g_currentMillis_runTime+0x1>
    4bf8:	60 91 8d 42 	lds	r22, 0x428D	; 0x80428d <g_currentMillis_runTime+0x2>
    4bfc:	70 91 8e 42 	lds	r23, 0x428E	; 0x80428e <g_currentMillis_runTime+0x3>
    4c00:	84 1b       	sub	r24, r20
    4c02:	95 0b       	sbc	r25, r21
    4c04:	a6 0b       	sbc	r26, r22
    4c06:	b7 0b       	sbc	r27, r23
    4c08:	81 3c       	cpi	r24, 0xC1	; 193
    4c0a:	97 42       	sbci	r25, 0x27	; 39
    4c0c:	a9 40       	sbci	r26, 0x09	; 9
    4c0e:	b1 05       	cpc	r27, r1
    4c10:	08 f4       	brcc	.+2      	; 0x4c14 <calcutale_run_service_time+0x3c>
    4c12:	44 c0       	rjmp	.+136    	; 0x4c9c <calcutale_run_service_time+0xc4>
    4c14:	80 91 5b 42 	lds	r24, 0x425B	; 0x80425b <countRunTime>
    4c18:	88 23       	and	r24, r24
    4c1a:	09 f4       	brne	.+2      	; 0x4c1e <calcutale_run_service_time+0x46>
    4c1c:	3f c0       	rjmp	.+126    	; 0x4c9c <calcutale_run_service_time+0xc4>
    4c1e:	81 e1       	ldi	r24, 0x11	; 17
    4c20:	90 e0       	ldi	r25, 0x00	; 0
    4c22:	0e 94 90 24 	call	0x4920	; 0x4920 <read_long_data_in_eeprom_SPM>
    4c26:	ab 01       	movw	r20, r22
    4c28:	bc 01       	movw	r22, r24
    4c2a:	40 54       	subi	r20, 0x40	; 64
    4c2c:	58 4d       	sbci	r21, 0xD8	; 216
    4c2e:	66 4f       	sbci	r22, 0xF6	; 246
    4c30:	7f 4f       	sbci	r23, 0xFF	; 255
    4c32:	81 e1       	ldi	r24, 0x11	; 17
    4c34:	90 e0       	ldi	r25, 0x00	; 0
    4c36:	0e 94 d0 24 	call	0x49a0	; 0x49a0 <write_data_in_eeprom_SPM_32bits>
    4c3a:	85 e1       	ldi	r24, 0x15	; 21
    4c3c:	90 e0       	ldi	r25, 0x00	; 0
    4c3e:	0e 94 90 24 	call	0x4920	; 0x4920 <read_long_data_in_eeprom_SPM>
    4c42:	6b 01       	movw	r12, r22
    4c44:	7c 01       	movw	r14, r24
    4c46:	20 ec       	ldi	r18, 0xC0	; 192
    4c48:	c2 0e       	add	r12, r18
    4c4a:	27 e2       	ldi	r18, 0x27	; 39
    4c4c:	d2 1e       	adc	r13, r18
    4c4e:	29 e0       	ldi	r18, 0x09	; 9
    4c50:	e2 1e       	adc	r14, r18
    4c52:	f1 1c       	adc	r15, r1
    4c54:	b7 01       	movw	r22, r14
    4c56:	a6 01       	movw	r20, r12
    4c58:	85 e1       	ldi	r24, 0x15	; 21
    4c5a:	90 e0       	ldi	r25, 0x00	; 0
    4c5c:	0e 94 d0 24 	call	0x49a0	; 0x49a0 <write_data_in_eeprom_SPM_32bits>
    4c60:	c1 14       	cp	r12, r1
    4c62:	84 ea       	ldi	r24, 0xA4	; 164
    4c64:	d8 06       	cpc	r13, r24
    4c66:	83 e9       	ldi	r24, 0x93	; 147
    4c68:	e8 06       	cpc	r14, r24
    4c6a:	86 ed       	ldi	r24, 0xD6	; 214
    4c6c:	f8 06       	cpc	r15, r24
    4c6e:	20 f0       	brcs	.+8      	; 0x4c78 <calcutale_run_service_time+0xa0>
    4c70:	81 e0       	ldi	r24, 0x01	; 1
    4c72:	80 93 7b 42 	sts	0x427B, r24	; 0x80427b <Service_alarm_flag_run>
    4c76:	02 c0       	rjmp	.+4      	; 0x4c7c <calcutale_run_service_time+0xa4>
    4c78:	10 92 7b 42 	sts	0x427B, r1	; 0x80427b <Service_alarm_flag_run>
    4c7c:	80 91 a2 42 	lds	r24, 0x42A2	; 0x8042a2 <millis>
    4c80:	90 91 a3 42 	lds	r25, 0x42A3	; 0x8042a3 <millis+0x1>
    4c84:	a0 91 a4 42 	lds	r26, 0x42A4	; 0x8042a4 <millis+0x2>
    4c88:	b0 91 a5 42 	lds	r27, 0x42A5	; 0x8042a5 <millis+0x3>
    4c8c:	80 93 8b 42 	sts	0x428B, r24	; 0x80428b <g_currentMillis_runTime>
    4c90:	90 93 8c 42 	sts	0x428C, r25	; 0x80428c <g_currentMillis_runTime+0x1>
    4c94:	a0 93 8d 42 	sts	0x428D, r26	; 0x80428d <g_currentMillis_runTime+0x2>
    4c98:	b0 93 8e 42 	sts	0x428E, r27	; 0x80428e <g_currentMillis_runTime+0x3>
    4c9c:	ff 90       	pop	r15
    4c9e:	ef 90       	pop	r14
    4ca0:	df 90       	pop	r13
    4ca2:	cf 90       	pop	r12
    4ca4:	08 95       	ret

00004ca6 <__vector_34>:
    4ca6:	1f 92       	push	r1
    4ca8:	0f 92       	push	r0
    4caa:	0f b6       	in	r0, 0x3f	; 63
    4cac:	0f 92       	push	r0
    4cae:	11 24       	eor	r1, r1
    4cb0:	0b b6       	in	r0, 0x3b	; 59
    4cb2:	0f 92       	push	r0
    4cb4:	4f 93       	push	r20
    4cb6:	5f 93       	push	r21
    4cb8:	6f 93       	push	r22
    4cba:	7f 93       	push	r23
    4cbc:	8f 93       	push	r24
    4cbe:	9f 93       	push	r25
    4cc0:	af 93       	push	r26
    4cc2:	bf 93       	push	r27
    4cc4:	ef 93       	push	r30
    4cc6:	ff 93       	push	r31
    4cc8:	80 91 a9 04 	lds	r24, 0x04A9	; 0x8004a9 <__TEXT_REGION_LENGTH__+0x7e04a9>
    4ccc:	82 ff       	sbrs	r24, 2
    4cce:	12 c0       	rjmp	.+36     	; 0x4cf4 <__vector_34+0x4e>
    4cd0:	80 91 8a 42 	lds	r24, 0x428A	; 0x80428a <smart_switch_mode_flag>
    4cd4:	88 23       	and	r24, r24
    4cd6:	19 f0       	breq	.+6      	; 0x4cde <__vector_34+0x38>
    4cd8:	10 92 8a 42 	sts	0x428A, r1	; 0x80428a <smart_switch_mode_flag>
    4cdc:	03 c0       	rjmp	.+6      	; 0x4ce4 <__vector_34+0x3e>
    4cde:	81 e0       	ldi	r24, 0x01	; 1
    4ce0:	80 93 8a 42 	sts	0x428A, r24	; 0x80428a <smart_switch_mode_flag>
    4ce4:	81 e0       	ldi	r24, 0x01	; 1
    4ce6:	80 93 5d 42 	sts	0x425D, r24	; 0x80425d <value_decrement_flag>
    4cea:	e0 ea       	ldi	r30, 0xA0	; 160
    4cec:	f4 e0       	ldi	r31, 0x04	; 4
    4cee:	81 85       	ldd	r24, Z+9	; 0x09
    4cf0:	84 60       	ori	r24, 0x04	; 4
    4cf2:	81 87       	std	Z+9, r24	; 0x09
    4cf4:	80 91 a9 04 	lds	r24, 0x04A9	; 0x8004a9 <__TEXT_REGION_LENGTH__+0x7e04a9>
    4cf8:	83 ff       	sbrs	r24, 3
    4cfa:	4f c0       	rjmp	.+158    	; 0x4d9a <__vector_34+0xf4>
    4cfc:	80 91 89 42 	lds	r24, 0x4289	; 0x804289 <unit_button_pressed_flag>
    4d00:	81 11       	cpse	r24, r1
    4d02:	1c c0       	rjmp	.+56     	; 0x4d3c <__vector_34+0x96>
    4d04:	80 91 a2 42 	lds	r24, 0x42A2	; 0x8042a2 <millis>
    4d08:	90 91 a3 42 	lds	r25, 0x42A3	; 0x8042a3 <millis+0x1>
    4d0c:	a0 91 a4 42 	lds	r26, 0x42A4	; 0x8042a4 <millis+0x2>
    4d10:	b0 91 a5 42 	lds	r27, 0x42A5	; 0x8042a5 <millis+0x3>
    4d14:	40 91 57 42 	lds	r20, 0x4257	; 0x804257 <long_press_pwms_set>
    4d18:	50 91 58 42 	lds	r21, 0x4258	; 0x804258 <long_press_pwms_set+0x1>
    4d1c:	60 91 59 42 	lds	r22, 0x4259	; 0x804259 <long_press_pwms_set+0x2>
    4d20:	70 91 5a 42 	lds	r23, 0x425A	; 0x80425a <long_press_pwms_set+0x3>
    4d24:	84 1b       	sub	r24, r20
    4d26:	95 0b       	sbc	r25, r21
    4d28:	a6 0b       	sbc	r26, r22
    4d2a:	b7 0b       	sbc	r27, r23
    4d2c:	8b 3f       	cpi	r24, 0xFB	; 251
    4d2e:	91 05       	cpc	r25, r1
    4d30:	a1 05       	cpc	r26, r1
    4d32:	b1 05       	cpc	r27, r1
    4d34:	18 f0       	brcs	.+6      	; 0x4d3c <__vector_34+0x96>
    4d36:	81 e0       	ldi	r24, 0x01	; 1
    4d38:	80 93 89 42 	sts	0x4289, r24	; 0x804289 <unit_button_pressed_flag>
    4d3c:	80 91 a8 04 	lds	r24, 0x04A8	; 0x8004a8 <__TEXT_REGION_LENGTH__+0x7e04a8>
    4d40:	83 ff       	sbrs	r24, 3
    4d42:	18 c0       	rjmp	.+48     	; 0x4d74 <__vector_34+0xce>
    4d44:	80 91 5b 42 	lds	r24, 0x425B	; 0x80425b <countRunTime>
    4d48:	88 23       	and	r24, r24
    4d4a:	a1 f0       	breq	.+40     	; 0x4d74 <__vector_34+0xce>
    4d4c:	81 e0       	ldi	r24, 0x01	; 1
    4d4e:	80 93 5c 42 	sts	0x425C, r24	; 0x80425c <mode_button_flag>
    4d52:	80 91 a2 42 	lds	r24, 0x42A2	; 0x8042a2 <millis>
    4d56:	90 91 a3 42 	lds	r25, 0x42A3	; 0x8042a3 <millis+0x1>
    4d5a:	a0 91 a4 42 	lds	r26, 0x42A4	; 0x8042a4 <millis+0x2>
    4d5e:	b0 91 a5 42 	lds	r27, 0x42A5	; 0x8042a5 <millis+0x3>
    4d62:	80 93 57 42 	sts	0x4257, r24	; 0x804257 <long_press_pwms_set>
    4d66:	90 93 58 42 	sts	0x4258, r25	; 0x804258 <long_press_pwms_set+0x1>
    4d6a:	a0 93 59 42 	sts	0x4259, r26	; 0x804259 <long_press_pwms_set+0x2>
    4d6e:	b0 93 5a 42 	sts	0x425A, r27	; 0x80425a <long_press_pwms_set+0x3>
    4d72:	0e c0       	rjmp	.+28     	; 0x4d90 <__vector_34+0xea>
    4d74:	80 91 a8 04 	lds	r24, 0x04A8	; 0x8004a8 <__TEXT_REGION_LENGTH__+0x7e04a8>
    4d78:	83 fd       	sbrc	r24, 3
    4d7a:	0a c0       	rjmp	.+20     	; 0x4d90 <__vector_34+0xea>
    4d7c:	10 92 57 42 	sts	0x4257, r1	; 0x804257 <long_press_pwms_set>
    4d80:	10 92 58 42 	sts	0x4258, r1	; 0x804258 <long_press_pwms_set+0x1>
    4d84:	10 92 59 42 	sts	0x4259, r1	; 0x804259 <long_press_pwms_set+0x2>
    4d88:	10 92 5a 42 	sts	0x425A, r1	; 0x80425a <long_press_pwms_set+0x3>
    4d8c:	10 92 5c 42 	sts	0x425C, r1	; 0x80425c <mode_button_flag>
    4d90:	e0 ea       	ldi	r30, 0xA0	; 160
    4d92:	f4 e0       	ldi	r31, 0x04	; 4
    4d94:	81 85       	ldd	r24, Z+9	; 0x09
    4d96:	88 60       	ori	r24, 0x08	; 8
    4d98:	81 87       	std	Z+9, r24	; 0x09
    4d9a:	ff 91       	pop	r31
    4d9c:	ef 91       	pop	r30
    4d9e:	bf 91       	pop	r27
    4da0:	af 91       	pop	r26
    4da2:	9f 91       	pop	r25
    4da4:	8f 91       	pop	r24
    4da6:	7f 91       	pop	r23
    4da8:	6f 91       	pop	r22
    4daa:	5f 91       	pop	r21
    4dac:	4f 91       	pop	r20
    4dae:	0f 90       	pop	r0
    4db0:	0b be       	out	0x3b, r0	; 59
    4db2:	0f 90       	pop	r0
    4db4:	0f be       	out	0x3f, r0	; 63
    4db6:	0f 90       	pop	r0
    4db8:	1f 90       	pop	r1
    4dba:	18 95       	reti

00004dbc <__vector_29>:
    4dbc:	1f 92       	push	r1
    4dbe:	0f 92       	push	r0
    4dc0:	0f b6       	in	r0, 0x3f	; 63
    4dc2:	0f 92       	push	r0
    4dc4:	11 24       	eor	r1, r1
    4dc6:	0b b6       	in	r0, 0x3b	; 59
    4dc8:	0f 92       	push	r0
    4dca:	2f 93       	push	r18
    4dcc:	3f 93       	push	r19
    4dce:	4f 93       	push	r20
    4dd0:	5f 93       	push	r21
    4dd2:	6f 93       	push	r22
    4dd4:	7f 93       	push	r23
    4dd6:	8f 93       	push	r24
    4dd8:	9f 93       	push	r25
    4dda:	af 93       	push	r26
    4ddc:	bf 93       	push	r27
    4dde:	ef 93       	push	r30
    4de0:	ff 93       	push	r31
    4de2:	80 91 49 04 	lds	r24, 0x0449	; 0x800449 <__TEXT_REGION_LENGTH__+0x7e0449>
    4de6:	88 23       	and	r24, r24
    4de8:	0c f0       	brlt	.+2      	; 0x4dec <__vector_29+0x30>
    4dea:	4d c0       	rjmp	.+154    	; 0x4e86 <__vector_29+0xca>
    4dec:	80 91 8a 42 	lds	r24, 0x428A	; 0x80428a <smart_switch_mode_flag>
    4df0:	88 23       	and	r24, r24
    4df2:	89 f1       	breq	.+98     	; 0x4e56 <__vector_29+0x9a>
    4df4:	80 91 71 42 	lds	r24, 0x4271	; 0x804271 <foot_switch_press_flag>
    4df8:	81 11       	cpse	r24, r1
    4dfa:	1b c0       	rjmp	.+54     	; 0x4e32 <__vector_29+0x76>
    4dfc:	90 91 48 04 	lds	r25, 0x0448	; 0x800448 <__TEXT_REGION_LENGTH__+0x7e0448>
    4e00:	99 23       	and	r25, r25
    4e02:	bc f4       	brge	.+46     	; 0x4e32 <__vector_29+0x76>
    4e04:	81 e0       	ldi	r24, 0x01	; 1
    4e06:	0e 94 ae 15 	call	0x2b5c	; 0x2b5c <MOTOR_ON_OFF>
    4e0a:	80 91 a2 42 	lds	r24, 0x42A2	; 0x8042a2 <millis>
    4e0e:	90 91 a3 42 	lds	r25, 0x42A3	; 0x8042a3 <millis+0x1>
    4e12:	a0 91 a4 42 	lds	r26, 0x42A4	; 0x8042a4 <millis+0x2>
    4e16:	b0 91 a5 42 	lds	r27, 0x42A5	; 0x8042a5 <millis+0x3>
    4e1a:	80 93 61 42 	sts	0x4261, r24	; 0x804261 <smart_switch_timmer>
    4e1e:	90 93 62 42 	sts	0x4262, r25	; 0x804262 <smart_switch_timmer+0x1>
    4e22:	a0 93 63 42 	sts	0x4263, r26	; 0x804263 <smart_switch_timmer+0x2>
    4e26:	b0 93 64 42 	sts	0x4264, r27	; 0x804264 <smart_switch_timmer+0x3>
    4e2a:	81 e0       	ldi	r24, 0x01	; 1
    4e2c:	80 93 71 42 	sts	0x4271, r24	; 0x804271 <foot_switch_press_flag>
    4e30:	25 c0       	rjmp	.+74     	; 0x4e7c <__vector_29+0xc0>
    4e32:	88 23       	and	r24, r24
    4e34:	19 f1       	breq	.+70     	; 0x4e7c <__vector_29+0xc0>
    4e36:	80 91 48 04 	lds	r24, 0x0448	; 0x800448 <__TEXT_REGION_LENGTH__+0x7e0448>
    4e3a:	88 23       	and	r24, r24
    4e3c:	fc f0       	brlt	.+62     	; 0x4e7c <__vector_29+0xc0>
    4e3e:	80 e0       	ldi	r24, 0x00	; 0
    4e40:	0e 94 ae 15 	call	0x2b5c	; 0x2b5c <MOTOR_ON_OFF>
    4e44:	80 91 6c 42 	lds	r24, 0x426C	; 0x80426c <foot_switch_press_count>
    4e48:	8f 5f       	subi	r24, 0xFF	; 255
    4e4a:	80 93 6c 42 	sts	0x426C, r24	; 0x80426c <foot_switch_press_count>
    4e4e:	81 e0       	ldi	r24, 0x01	; 1
    4e50:	80 93 70 42 	sts	0x4270, r24	; 0x804270 <foot_switch_release_flag>
    4e54:	13 c0       	rjmp	.+38     	; 0x4e7c <__vector_29+0xc0>
    4e56:	80 91 71 42 	lds	r24, 0x4271	; 0x804271 <foot_switch_press_flag>
    4e5a:	81 11       	cpse	r24, r1
    4e5c:	08 c0       	rjmp	.+16     	; 0x4e6e <__vector_29+0xb2>
    4e5e:	80 91 48 04 	lds	r24, 0x0448	; 0x800448 <__TEXT_REGION_LENGTH__+0x7e0448>
    4e62:	88 23       	and	r24, r24
    4e64:	24 f4       	brge	.+8      	; 0x4e6e <__vector_29+0xb2>
    4e66:	81 e0       	ldi	r24, 0x01	; 1
    4e68:	80 93 71 42 	sts	0x4271, r24	; 0x804271 <foot_switch_press_flag>
    4e6c:	07 c0       	rjmp	.+14     	; 0x4e7c <__vector_29+0xc0>
    4e6e:	80 91 48 04 	lds	r24, 0x0448	; 0x800448 <__TEXT_REGION_LENGTH__+0x7e0448>
    4e72:	88 23       	and	r24, r24
    4e74:	1c f0       	brlt	.+6      	; 0x4e7c <__vector_29+0xc0>
    4e76:	81 e0       	ldi	r24, 0x01	; 1
    4e78:	80 93 70 42 	sts	0x4270, r24	; 0x804270 <foot_switch_release_flag>
    4e7c:	e0 e4       	ldi	r30, 0x40	; 64
    4e7e:	f4 e0       	ldi	r31, 0x04	; 4
    4e80:	81 85       	ldd	r24, Z+9	; 0x09
    4e82:	80 68       	ori	r24, 0x80	; 128
    4e84:	81 87       	std	Z+9, r24	; 0x09
    4e86:	80 91 49 04 	lds	r24, 0x0449	; 0x800449 <__TEXT_REGION_LENGTH__+0x7e0449>
    4e8a:	83 ff       	sbrs	r24, 3
    4e8c:	08 c0       	rjmp	.+16     	; 0x4e9e <__vector_29+0xe2>
    4e8e:	81 e0       	ldi	r24, 0x01	; 1
    4e90:	80 93 6f 42 	sts	0x426F, r24	; 0x80426f <foot_switch_detect_isr_flag>
    4e94:	e0 e4       	ldi	r30, 0x40	; 64
    4e96:	f4 e0       	ldi	r31, 0x04	; 4
    4e98:	81 85       	ldd	r24, Z+9	; 0x09
    4e9a:	88 60       	ori	r24, 0x08	; 8
    4e9c:	81 87       	std	Z+9, r24	; 0x09
    4e9e:	ff 91       	pop	r31
    4ea0:	ef 91       	pop	r30
    4ea2:	bf 91       	pop	r27
    4ea4:	af 91       	pop	r26
    4ea6:	9f 91       	pop	r25
    4ea8:	8f 91       	pop	r24
    4eaa:	7f 91       	pop	r23
    4eac:	6f 91       	pop	r22
    4eae:	5f 91       	pop	r21
    4eb0:	4f 91       	pop	r20
    4eb2:	3f 91       	pop	r19
    4eb4:	2f 91       	pop	r18
    4eb6:	0f 90       	pop	r0
    4eb8:	0b be       	out	0x3b, r0	; 59
    4eba:	0f 90       	pop	r0
    4ebc:	0f be       	out	0x3f, r0	; 63
    4ebe:	0f 90       	pop	r0
    4ec0:	1f 90       	pop	r1
    4ec2:	18 95       	reti

00004ec4 <__vector_45>:
    4ec4:	1f 92       	push	r1
    4ec6:	0f 92       	push	r0
    4ec8:	0f b6       	in	r0, 0x3f	; 63
    4eca:	0f 92       	push	r0
    4ecc:	11 24       	eor	r1, r1
    4ece:	0b b6       	in	r0, 0x3b	; 59
    4ed0:	0f 92       	push	r0
    4ed2:	8f 93       	push	r24
    4ed4:	ef 93       	push	r30
    4ed6:	ff 93       	push	r31
    4ed8:	80 91 89 04 	lds	r24, 0x0489	; 0x800489 <__TEXT_REGION_LENGTH__+0x7e0489>
    4edc:	81 ff       	sbrs	r24, 1
    4ede:	0a c0       	rjmp	.+20     	; 0x4ef4 <__vector_45+0x30>
    4ee0:	81 e0       	ldi	r24, 0x01	; 1
    4ee2:	80 93 86 42 	sts	0x4286, r24	; 0x804286 <play_pause_button_press_flag>
    4ee6:	80 93 13 40 	sts	0x4013, r24	; 0x804013 <value_ok_flag>
    4eea:	e0 e8       	ldi	r30, 0x80	; 128
    4eec:	f4 e0       	ldi	r31, 0x04	; 4
    4eee:	81 85       	ldd	r24, Z+9	; 0x09
    4ef0:	82 60       	ori	r24, 0x02	; 2
    4ef2:	81 87       	std	Z+9, r24	; 0x09
    4ef4:	80 91 89 04 	lds	r24, 0x0489	; 0x800489 <__TEXT_REGION_LENGTH__+0x7e0489>
    4ef8:	82 ff       	sbrs	r24, 2
    4efa:	12 c0       	rjmp	.+36     	; 0x4f20 <__vector_45+0x5c>
    4efc:	80 91 6a 42 	lds	r24, 0x426A	; 0x80426a <power_save_mode_on_flag>
    4f00:	88 23       	and	r24, r24
    4f02:	19 f0       	breq	.+6      	; 0x4f0a <__vector_45+0x46>
    4f04:	10 92 6a 42 	sts	0x426A, r1	; 0x80426a <power_save_mode_on_flag>
    4f08:	03 c0       	rjmp	.+6      	; 0x4f10 <__vector_45+0x4c>
    4f0a:	81 e0       	ldi	r24, 0x01	; 1
    4f0c:	80 93 6a 42 	sts	0x426A, r24	; 0x80426a <power_save_mode_on_flag>
    4f10:	81 e0       	ldi	r24, 0x01	; 1
    4f12:	80 93 5e 42 	sts	0x425E, r24	; 0x80425e <value_increment_flag>
    4f16:	e0 e8       	ldi	r30, 0x80	; 128
    4f18:	f4 e0       	ldi	r31, 0x04	; 4
    4f1a:	81 85       	ldd	r24, Z+9	; 0x09
    4f1c:	84 60       	ori	r24, 0x04	; 4
    4f1e:	81 87       	std	Z+9, r24	; 0x09
    4f20:	80 91 89 04 	lds	r24, 0x0489	; 0x800489 <__TEXT_REGION_LENGTH__+0x7e0489>
    4f24:	80 ff       	sbrs	r24, 0
    4f26:	08 c0       	rjmp	.+16     	; 0x4f38 <__vector_45+0x74>
    4f28:	81 e0       	ldi	r24, 0x01	; 1
    4f2a:	80 93 88 42 	sts	0x4288, r24	; 0x804288 <speed_button_press_flag>
    4f2e:	e0 e8       	ldi	r30, 0x80	; 128
    4f30:	f4 e0       	ldi	r31, 0x04	; 4
    4f32:	81 85       	ldd	r24, Z+9	; 0x09
    4f34:	81 60       	ori	r24, 0x01	; 1
    4f36:	81 87       	std	Z+9, r24	; 0x09
    4f38:	ff 91       	pop	r31
    4f3a:	ef 91       	pop	r30
    4f3c:	8f 91       	pop	r24
    4f3e:	0f 90       	pop	r0
    4f40:	0b be       	out	0x3b, r0	; 59
    4f42:	0f 90       	pop	r0
    4f44:	0f be       	out	0x3f, r0	; 63
    4f46:	0f 90       	pop	r0
    4f48:	1f 90       	pop	r1
    4f4a:	18 95       	reti

00004f4c <get_int_limited>:
		settings();
	}
}

int get_int_limited(int startVal, int lowerVal, int upperVal, int changeBy)
{
    4f4c:	0f 93       	push	r16
    4f4e:	1f 93       	push	r17
    4f50:	cf 93       	push	r28
    4f52:	df 93       	push	r29
    4f54:	8b 01       	movw	r16, r22
    4f56:	ea 01       	movw	r28, r20
	
	int tempVal = startVal;
	
	if (POWER_SAVE_PORT.IN & (POWER_SAVE_PIN))
    4f58:	40 91 88 04 	lds	r20, 0x0488	; 0x800488 <__TEXT_REGION_LENGTH__+0x7e0488>
    4f5c:	42 ff       	sbrs	r20, 2
    4f5e:	0e c0       	rjmp	.+28     	; 0x4f7c <get_int_limited+0x30>
	{
		//USART1_sendString(__FUNCTION__);
		tempVal += changeBy;
    4f60:	28 0f       	add	r18, r24
    4f62:	39 1f       	adc	r19, r25
		if (tempVal > upperVal)
    4f64:	c2 17       	cp	r28, r18
    4f66:	d3 07       	cpc	r29, r19
    4f68:	0c f0       	brlt	.+2      	; 0x4f6c <get_int_limited+0x20>
	int tempVal = startVal;
	
	if (POWER_SAVE_PORT.IN & (POWER_SAVE_PIN))
	{
		//USART1_sendString(__FUNCTION__);
		tempVal += changeBy;
    4f6a:	e9 01       	movw	r28, r18
		if (tempVal > upperVal)
		{
			tempVal = upperVal;
		}
		USART1_sendInt(tempVal);
    4f6c:	be 01       	movw	r22, r28
    4f6e:	0d 2e       	mov	r0, r29
    4f70:	00 0c       	add	r0, r0
    4f72:	88 0b       	sbc	r24, r24
    4f74:	99 0b       	sbc	r25, r25
    4f76:	0e 94 19 10 	call	0x2032	; 0x2032 <USART1_sendInt>
    4f7a:	15 c0       	rjmp	.+42     	; 0x4fa6 <get_int_limited+0x5a>
	}
	else if (SMART_SW_PORT.IN & (SMART_SW_PIN))
    4f7c:	40 91 a8 04 	lds	r20, 0x04A8	; 0x8004a8 <__TEXT_REGION_LENGTH__+0x7e04a8>
    4f80:	42 ff       	sbrs	r20, 2
    4f82:	10 c0       	rjmp	.+32     	; 0x4fa4 <get_int_limited+0x58>
	{
		//USART1_sendString(__FUNCTION__);
		tempVal -= changeBy;
    4f84:	ac 01       	movw	r20, r24
    4f86:	42 1b       	sub	r20, r18
    4f88:	53 0b       	sbc	r21, r19
		if (tempVal < lowerVal)
    4f8a:	46 17       	cp	r20, r22
    4f8c:	57 07       	cpc	r21, r23
    4f8e:	0c f0       	brlt	.+2      	; 0x4f92 <get_int_limited+0x46>
		USART1_sendInt(tempVal);
	}
	else if (SMART_SW_PORT.IN & (SMART_SW_PIN))
	{
		//USART1_sendString(__FUNCTION__);
		tempVal -= changeBy;
    4f90:	8a 01       	movw	r16, r20
		if (tempVal < lowerVal)
		{
			tempVal = lowerVal;
		}
		USART1_sendInt(tempVal);
    4f92:	b8 01       	movw	r22, r16
    4f94:	01 2e       	mov	r0, r17
    4f96:	00 0c       	add	r0, r0
    4f98:	88 0b       	sbc	r24, r24
    4f9a:	99 0b       	sbc	r25, r25
    4f9c:	0e 94 19 10 	call	0x2032	; 0x2032 <USART1_sendInt>
    4fa0:	e8 01       	movw	r28, r16
    4fa2:	01 c0       	rjmp	.+2      	; 0x4fa6 <get_int_limited+0x5a>
}

int get_int_limited(int startVal, int lowerVal, int upperVal, int changeBy)
{
	
	int tempVal = startVal;
    4fa4:	ec 01       	movw	r28, r24
	#else
		//round up by default
		__ticks_dc = (uint32_t)(ceil(fabs(__tmp)));
	#endif

	__builtin_avr_delay_cycles(__ticks_dc);
    4fa6:	5f e7       	ldi	r21, 0x7F	; 127
    4fa8:	8f e4       	ldi	r24, 0x4F	; 79
    4faa:	92 e1       	ldi	r25, 0x12	; 18
    4fac:	51 50       	subi	r21, 0x01	; 1
    4fae:	80 40       	sbci	r24, 0x00	; 0
    4fb0:	90 40       	sbci	r25, 0x00	; 0
    4fb2:	e1 f7       	brne	.-8      	; 0x4fac <get_int_limited+0x60>
    4fb4:	00 c0       	rjmp	.+0      	; 0x4fb6 <get_int_limited+0x6a>
    4fb6:	00 00       	nop
		}
		USART1_sendInt(tempVal);
	}
	_delay_ms(250);
	return tempVal;
}
    4fb8:	ce 01       	movw	r24, r28
    4fba:	df 91       	pop	r29
    4fbc:	cf 91       	pop	r28
    4fbe:	1f 91       	pop	r17
    4fc0:	0f 91       	pop	r16
    4fc2:	08 95       	ret

00004fc4 <settings>:

int settings(void)
{
    4fc4:	cf 93       	push	r28
    4fc6:	df 93       	push	r29
	uint16_t l_address = 0x00;
	value_ok_flag = false;	
    4fc8:	10 92 13 40 	sts	0x4013, r1	; 0x804013 <value_ok_flag>
	USART1_sendString("ENTERING IN SETTING MENU.............................");
    4fcc:	85 e1       	ldi	r24, 0x15	; 21
    4fce:	91 e4       	ldi	r25, 0x41	; 65
    4fd0:	0e 94 da 0f 	call	0x1fb4	; 0x1fb4 <USART1_sendString>
	USART1_sendString_without_newline("20 LPM STATUS: ");
    4fd4:	8b e4       	ldi	r24, 0x4B	; 75
    4fd6:	91 e4       	ldi	r25, 0x41	; 65
    4fd8:	0e 94 fb 0f 	call	0x1ff6	; 0x1ff6 <USART1_sendString_without_newline>
	USART1_sendInt(lpm20_flag);
    4fdc:	60 91 54 42 	lds	r22, 0x4254	; 0x804254 <lpm20_flag>
    4fe0:	70 e0       	ldi	r23, 0x00	; 0
    4fe2:	80 e0       	ldi	r24, 0x00	; 0
    4fe4:	90 e0       	ldi	r25, 0x00	; 0
    4fe6:	0e 94 19 10 	call	0x2032	; 0x2032 <USART1_sendInt>
	USART1_sendString_without_newline("30 LPM STATUS: ");
    4fea:	8b e5       	ldi	r24, 0x5B	; 91
    4fec:	91 e4       	ldi	r25, 0x41	; 65
    4fee:	0e 94 fb 0f 	call	0x1ff6	; 0x1ff6 <USART1_sendString_without_newline>
	USART1_sendInt(lpm30_flag);
    4ff2:	60 91 53 42 	lds	r22, 0x4253	; 0x804253 <lpm30_flag>
    4ff6:	70 e0       	ldi	r23, 0x00	; 0
    4ff8:	80 e0       	ldi	r24, 0x00	; 0
    4ffa:	90 e0       	ldi	r25, 0x00	; 0
    4ffc:	0e 94 19 10 	call	0x2032	; 0x2032 <USART1_sendInt>
	USART1_sendString_without_newline("40 LPM STATUS: ");
    5000:	8b e6       	ldi	r24, 0x6B	; 107
    5002:	91 e4       	ldi	r25, 0x41	; 65
    5004:	0e 94 fb 0f 	call	0x1ff6	; 0x1ff6 <USART1_sendString_without_newline>
	USART1_sendInt(lpm40_flag);
    5008:	60 91 52 42 	lds	r22, 0x4252	; 0x804252 <lpm40_flag>
    500c:	70 e0       	ldi	r23, 0x00	; 0
    500e:	80 e0       	ldi	r24, 0x00	; 0
    5010:	90 e0       	ldi	r25, 0x00	; 0
    5012:	0e 94 19 10 	call	0x2032	; 0x2032 <USART1_sendInt>
	USART1_sendString_without_newline("50 LPM STATUS: ");
    5016:	8b e7       	ldi	r24, 0x7B	; 123
    5018:	91 e4       	ldi	r25, 0x41	; 65
    501a:	0e 94 fb 0f 	call	0x1ff6	; 0x1ff6 <USART1_sendString_without_newline>
	USART1_sendInt(lpm50_flag);
    501e:	60 91 51 42 	lds	r22, 0x4251	; 0x804251 <lpm50_flag>
    5022:	70 e0       	ldi	r23, 0x00	; 0
    5024:	80 e0       	ldi	r24, 0x00	; 0
    5026:	90 e0       	ldi	r25, 0x00	; 0
    5028:	0e 94 19 10 	call	0x2032	; 0x2032 <USART1_sendInt>
	USART1_sendString_without_newline("60 LPM STATUS: ");
    502c:	8b e8       	ldi	r24, 0x8B	; 139
    502e:	91 e4       	ldi	r25, 0x41	; 65
    5030:	0e 94 fb 0f 	call	0x1ff6	; 0x1ff6 <USART1_sendString_without_newline>
	USART1_sendInt(lpm60_flag);
    5034:	60 91 50 42 	lds	r22, 0x4250	; 0x804250 <lpm60_flag>
    5038:	70 e0       	ldi	r23, 0x00	; 0
    503a:	80 e0       	ldi	r24, 0x00	; 0
    503c:	90 e0       	ldi	r25, 0x00	; 0
    503e:	0e 94 19 10 	call	0x2032	; 0x2032 <USART1_sendInt>
	return tempVal;
}

int settings(void)
{
	uint16_t l_address = 0x00;
    5042:	20 e0       	ldi	r18, 0x00	; 0
    5044:	30 e0       	ldi	r19, 0x00	; 0
	USART1_sendInt(lpm50_flag);
	USART1_sendString_without_newline("60 LPM STATUS: ");
	USART1_sendInt(lpm60_flag);
	
	
	while(!value_ok_flag)
    5046:	c6 c0       	rjmp	.+396    	; 0x51d4 <settings+0x210>
	{
		//USART1_sendString(__FUNCTION__);
		if (lpm20_flag)
    5048:	90 91 54 42 	lds	r25, 0x4254	; 0x804254 <lpm20_flag>
    504c:	99 23       	and	r25, r25
    504e:	39 f1       	breq	.+78     	; 0x509e <settings+0xda>
		{USART1_sendString("$$$$$$$$$$$$$$$$$$$$$$$$$$$$$$$$$$$$$$$$$$$$$$$$$$$$$$$$$$$$$$$$$$$$$$$$$$$$$$$$$$$$$");
    5050:	8b e9       	ldi	r24, 0x9B	; 155
    5052:	91 e4       	ldi	r25, 0x41	; 65
    5054:	0e 94 da 0f 	call	0x1fb4	; 0x1fb4 <USART1_sendString>
			TCA0.SINGLE.CMP0 = LPM_20 = get_int_limited(LPM_20, LPM_20 - 100, TCA0.SINGLE.PER, 5);
    5058:	c0 e0       	ldi	r28, 0x00	; 0
    505a:	da e0       	ldi	r29, 0x0A	; 10
    505c:	4e a1       	ldd	r20, Y+38	; 0x26
    505e:	5f a1       	ldd	r21, Y+39	; 0x27
    5060:	60 91 11 40 	lds	r22, 0x4011	; 0x804011 <LPM_20>
    5064:	70 91 12 40 	lds	r23, 0x4012	; 0x804012 <LPM_20+0x1>
    5068:	80 91 11 40 	lds	r24, 0x4011	; 0x804011 <LPM_20>
    506c:	90 91 12 40 	lds	r25, 0x4012	; 0x804012 <LPM_20+0x1>
    5070:	64 56       	subi	r22, 0x64	; 100
    5072:	71 09       	sbc	r23, r1
    5074:	25 e0       	ldi	r18, 0x05	; 5
    5076:	30 e0       	ldi	r19, 0x00	; 0
    5078:	0e 94 a6 27 	call	0x4f4c	; 0x4f4c <get_int_limited>
    507c:	80 93 11 40 	sts	0x4011, r24	; 0x804011 <LPM_20>
    5080:	90 93 12 40 	sts	0x4012, r25	; 0x804012 <LPM_20+0x1>
    5084:	88 a7       	std	Y+40, r24	; 0x28
    5086:	99 a7       	std	Y+41, r25	; 0x29
			l_address = lpm20_duty_addr;
			return_val = LPM_20;
    5088:	80 91 11 40 	lds	r24, 0x4011	; 0x804011 <LPM_20>
    508c:	90 91 12 40 	lds	r25, 0x4012	; 0x804012 <LPM_20+0x1>
    5090:	80 93 5f 42 	sts	0x425F, r24	; 0x80425f <return_val>
    5094:	90 93 60 42 	sts	0x4260, r25	; 0x804260 <return_val+0x1>
	{
		//USART1_sendString(__FUNCTION__);
		if (lpm20_flag)
		{USART1_sendString("$$$$$$$$$$$$$$$$$$$$$$$$$$$$$$$$$$$$$$$$$$$$$$$$$$$$$$$$$$$$$$$$$$$$$$$$$$$$$$$$$$$$$");
			TCA0.SINGLE.CMP0 = LPM_20 = get_int_limited(LPM_20, LPM_20 - 100, TCA0.SINGLE.PER, 5);
			l_address = lpm20_duty_addr;
    5098:	29 e1       	ldi	r18, 0x19	; 25
    509a:	30 e0       	ldi	r19, 0x00	; 0
    509c:	9b c0       	rjmp	.+310    	; 0x51d4 <settings+0x210>
			return_val = LPM_20;
		}
		
		else if (lpm30_flag)
    509e:	90 91 53 42 	lds	r25, 0x4253	; 0x804253 <lpm30_flag>
    50a2:	99 23       	and	r25, r25
    50a4:	19 f1       	breq	.+70     	; 0x50ec <settings+0x128>
		{
			TCA0.SINGLE.CMP0 = LPM_30 = get_int_limited(LPM_30, LPM_30 - 100, TCA0.SINGLE.PER, 5);
    50a6:	c0 e0       	ldi	r28, 0x00	; 0
    50a8:	da e0       	ldi	r29, 0x0A	; 10
    50aa:	4e a1       	ldd	r20, Y+38	; 0x26
    50ac:	5f a1       	ldd	r21, Y+39	; 0x27
    50ae:	60 91 0f 40 	lds	r22, 0x400F	; 0x80400f <LPM_30>
    50b2:	70 91 10 40 	lds	r23, 0x4010	; 0x804010 <LPM_30+0x1>
    50b6:	80 91 0f 40 	lds	r24, 0x400F	; 0x80400f <LPM_30>
    50ba:	90 91 10 40 	lds	r25, 0x4010	; 0x804010 <LPM_30+0x1>
    50be:	64 56       	subi	r22, 0x64	; 100
    50c0:	71 09       	sbc	r23, r1
    50c2:	25 e0       	ldi	r18, 0x05	; 5
    50c4:	30 e0       	ldi	r19, 0x00	; 0
    50c6:	0e 94 a6 27 	call	0x4f4c	; 0x4f4c <get_int_limited>
    50ca:	80 93 0f 40 	sts	0x400F, r24	; 0x80400f <LPM_30>
    50ce:	90 93 10 40 	sts	0x4010, r25	; 0x804010 <LPM_30+0x1>
    50d2:	88 a7       	std	Y+40, r24	; 0x28
    50d4:	99 a7       	std	Y+41, r25	; 0x29
			l_address = lpm30_duty_addr;
			return_val = LPM_30;
    50d6:	80 91 0f 40 	lds	r24, 0x400F	; 0x80400f <LPM_30>
    50da:	90 91 10 40 	lds	r25, 0x4010	; 0x804010 <LPM_30+0x1>
    50de:	80 93 5f 42 	sts	0x425F, r24	; 0x80425f <return_val>
    50e2:	90 93 60 42 	sts	0x4260, r25	; 0x804260 <return_val+0x1>
		}
		
		else if (lpm30_flag)
		{
			TCA0.SINGLE.CMP0 = LPM_30 = get_int_limited(LPM_30, LPM_30 - 100, TCA0.SINGLE.PER, 5);
			l_address = lpm30_duty_addr;
    50e6:	2b e1       	ldi	r18, 0x1B	; 27
    50e8:	30 e0       	ldi	r19, 0x00	; 0
    50ea:	74 c0       	rjmp	.+232    	; 0x51d4 <settings+0x210>
			return_val = LPM_30;
		}
		
		else if (lpm40_flag)
    50ec:	80 91 52 42 	lds	r24, 0x4252	; 0x804252 <lpm40_flag>
    50f0:	88 23       	and	r24, r24
    50f2:	19 f1       	breq	.+70     	; 0x513a <settings+0x176>
		{
			TCA0.SINGLE.CMP0 = LPM_40 = get_int_limited(LPM_40, LPM_40 - 100, TCA0.SINGLE.PER, 5);
    50f4:	c0 e0       	ldi	r28, 0x00	; 0
    50f6:	da e0       	ldi	r29, 0x0A	; 10
    50f8:	4e a1       	ldd	r20, Y+38	; 0x26
    50fa:	5f a1       	ldd	r21, Y+39	; 0x27
    50fc:	60 91 0d 40 	lds	r22, 0x400D	; 0x80400d <LPM_40>
    5100:	70 91 0e 40 	lds	r23, 0x400E	; 0x80400e <LPM_40+0x1>
    5104:	80 91 0d 40 	lds	r24, 0x400D	; 0x80400d <LPM_40>
    5108:	90 91 0e 40 	lds	r25, 0x400E	; 0x80400e <LPM_40+0x1>
    510c:	64 56       	subi	r22, 0x64	; 100
    510e:	71 09       	sbc	r23, r1
    5110:	25 e0       	ldi	r18, 0x05	; 5
    5112:	30 e0       	ldi	r19, 0x00	; 0
    5114:	0e 94 a6 27 	call	0x4f4c	; 0x4f4c <get_int_limited>
    5118:	80 93 0d 40 	sts	0x400D, r24	; 0x80400d <LPM_40>
    511c:	90 93 0e 40 	sts	0x400E, r25	; 0x80400e <LPM_40+0x1>
    5120:	88 a7       	std	Y+40, r24	; 0x28
    5122:	99 a7       	std	Y+41, r25	; 0x29
			l_address = lpm40_duty_addr;
			return_val = LPM_40;
    5124:	80 91 0d 40 	lds	r24, 0x400D	; 0x80400d <LPM_40>
    5128:	90 91 0e 40 	lds	r25, 0x400E	; 0x80400e <LPM_40+0x1>
    512c:	80 93 5f 42 	sts	0x425F, r24	; 0x80425f <return_val>
    5130:	90 93 60 42 	sts	0x4260, r25	; 0x804260 <return_val+0x1>
		}
		
		else if (lpm40_flag)
		{
			TCA0.SINGLE.CMP0 = LPM_40 = get_int_limited(LPM_40, LPM_40 - 100, TCA0.SINGLE.PER, 5);
			l_address = lpm40_duty_addr;
    5134:	2d e1       	ldi	r18, 0x1D	; 29
    5136:	30 e0       	ldi	r19, 0x00	; 0
    5138:	4d c0       	rjmp	.+154    	; 0x51d4 <settings+0x210>
			return_val = LPM_40;
		}
		
		else if (lpm50_flag)
    513a:	80 91 51 42 	lds	r24, 0x4251	; 0x804251 <lpm50_flag>
    513e:	88 23       	and	r24, r24
    5140:	19 f1       	breq	.+70     	; 0x5188 <settings+0x1c4>
		{
			TCA0.SINGLE.CMP0 = LPM_50 = get_int_limited(LPM_50, LPM_50 - 100, TCA0.SINGLE.PER, 5);
    5142:	c0 e0       	ldi	r28, 0x00	; 0
    5144:	da e0       	ldi	r29, 0x0A	; 10
    5146:	4e a1       	ldd	r20, Y+38	; 0x26
    5148:	5f a1       	ldd	r21, Y+39	; 0x27
    514a:	60 91 0b 40 	lds	r22, 0x400B	; 0x80400b <LPM_50>
    514e:	70 91 0c 40 	lds	r23, 0x400C	; 0x80400c <LPM_50+0x1>
    5152:	80 91 0b 40 	lds	r24, 0x400B	; 0x80400b <LPM_50>
    5156:	90 91 0c 40 	lds	r25, 0x400C	; 0x80400c <LPM_50+0x1>
    515a:	64 56       	subi	r22, 0x64	; 100
    515c:	71 09       	sbc	r23, r1
    515e:	25 e0       	ldi	r18, 0x05	; 5
    5160:	30 e0       	ldi	r19, 0x00	; 0
    5162:	0e 94 a6 27 	call	0x4f4c	; 0x4f4c <get_int_limited>
    5166:	80 93 0b 40 	sts	0x400B, r24	; 0x80400b <LPM_50>
    516a:	90 93 0c 40 	sts	0x400C, r25	; 0x80400c <LPM_50+0x1>
    516e:	88 a7       	std	Y+40, r24	; 0x28
    5170:	99 a7       	std	Y+41, r25	; 0x29
			l_address = lpm50_duty_addr;
			return_val = LPM_50;
    5172:	80 91 0b 40 	lds	r24, 0x400B	; 0x80400b <LPM_50>
    5176:	90 91 0c 40 	lds	r25, 0x400C	; 0x80400c <LPM_50+0x1>
    517a:	80 93 5f 42 	sts	0x425F, r24	; 0x80425f <return_val>
    517e:	90 93 60 42 	sts	0x4260, r25	; 0x804260 <return_val+0x1>
		}
		
		else if (lpm50_flag)
		{
			TCA0.SINGLE.CMP0 = LPM_50 = get_int_limited(LPM_50, LPM_50 - 100, TCA0.SINGLE.PER, 5);
			l_address = lpm50_duty_addr;
    5182:	2f e1       	ldi	r18, 0x1F	; 31
    5184:	30 e0       	ldi	r19, 0x00	; 0
    5186:	26 c0       	rjmp	.+76     	; 0x51d4 <settings+0x210>
			return_val = LPM_50;
		}
		
		else if (lpm60_flag)
    5188:	80 91 50 42 	lds	r24, 0x4250	; 0x804250 <lpm60_flag>
    518c:	88 23       	and	r24, r24
    518e:	11 f1       	breq	.+68     	; 0x51d4 <settings+0x210>
		{
			TCA0.SINGLE.CMP0 = LPM_60 = get_int_limited(LPM_60, LPM_60 - 100, TCA0.SINGLE.PER, 5);
    5190:	c0 e0       	ldi	r28, 0x00	; 0
    5192:	da e0       	ldi	r29, 0x0A	; 10
    5194:	4e a1       	ldd	r20, Y+38	; 0x26
    5196:	5f a1       	ldd	r21, Y+39	; 0x27
    5198:	60 91 09 40 	lds	r22, 0x4009	; 0x804009 <LPM_60>
    519c:	70 91 0a 40 	lds	r23, 0x400A	; 0x80400a <LPM_60+0x1>
    51a0:	80 91 09 40 	lds	r24, 0x4009	; 0x804009 <LPM_60>
    51a4:	90 91 0a 40 	lds	r25, 0x400A	; 0x80400a <LPM_60+0x1>
    51a8:	64 56       	subi	r22, 0x64	; 100
    51aa:	71 09       	sbc	r23, r1
    51ac:	25 e0       	ldi	r18, 0x05	; 5
    51ae:	30 e0       	ldi	r19, 0x00	; 0
    51b0:	0e 94 a6 27 	call	0x4f4c	; 0x4f4c <get_int_limited>
    51b4:	80 93 09 40 	sts	0x4009, r24	; 0x804009 <LPM_60>
    51b8:	90 93 0a 40 	sts	0x400A, r25	; 0x80400a <LPM_60+0x1>
    51bc:	88 a7       	std	Y+40, r24	; 0x28
    51be:	99 a7       	std	Y+41, r25	; 0x29
			l_address = lpm60_duty_addr;
			return_val = LPM_60;
    51c0:	80 91 09 40 	lds	r24, 0x4009	; 0x804009 <LPM_60>
    51c4:	90 91 0a 40 	lds	r25, 0x400A	; 0x80400a <LPM_60+0x1>
    51c8:	80 93 5f 42 	sts	0x425F, r24	; 0x80425f <return_val>
    51cc:	90 93 60 42 	sts	0x4260, r25	; 0x804260 <return_val+0x1>
		}
		
		else if (lpm60_flag)
		{
			TCA0.SINGLE.CMP0 = LPM_60 = get_int_limited(LPM_60, LPM_60 - 100, TCA0.SINGLE.PER, 5);
			l_address = lpm60_duty_addr;
    51d0:	21 e2       	ldi	r18, 0x21	; 33
    51d2:	30 e0       	ldi	r19, 0x00	; 0
	USART1_sendInt(lpm50_flag);
	USART1_sendString_without_newline("60 LPM STATUS: ");
	USART1_sendInt(lpm60_flag);
	
	
	while(!value_ok_flag)
    51d4:	90 91 13 40 	lds	r25, 0x4013	; 0x804013 <value_ok_flag>
    51d8:	99 23       	and	r25, r25
    51da:	09 f4       	brne	.+2      	; 0x51de <settings+0x21a>
    51dc:	35 cf       	rjmp	.-406    	; 0x5048 <settings+0x84>
			TCA0.SINGLE.CMP0 = LPM_60 = get_int_limited(LPM_60, LPM_60 - 100, TCA0.SINGLE.PER, 5);
			l_address = lpm60_duty_addr;
			return_val = LPM_60;
		}
	}
	write_16t_data_in_eeprom_SPM(l_address, return_val);
    51de:	60 91 5f 42 	lds	r22, 0x425F	; 0x80425f <return_val>
    51e2:	70 91 60 42 	lds	r23, 0x4260	; 0x804260 <return_val+0x1>
    51e6:	c9 01       	movw	r24, r18
    51e8:	0e 94 43 23 	call	0x4686	; 0x4686 <write_16t_data_in_eeprom_SPM>
	USART1_sendString("EEPROM UPDATED. Maja aaaaaaa gayaaaaaaaaa..........");
    51ec:	81 ef       	ldi	r24, 0xF1	; 241
    51ee:	91 e4       	ldi	r25, 0x41	; 65
    51f0:	0e 94 da 0f 	call	0x1fb4	; 0x1fb4 <USART1_sendString>
 
	value_ok_flag = false;
    51f4:	10 92 13 40 	sts	0x4013, r1	; 0x804013 <value_ok_flag>
	delete_rectangle(50,130,60,147);
    51f8:	23 e9       	ldi	r18, 0x93	; 147
    51fa:	4c e3       	ldi	r20, 0x3C	; 60
    51fc:	62 e8       	ldi	r22, 0x82	; 130
    51fe:	82 e3       	ldi	r24, 0x32	; 50
    5200:	0e 94 31 15 	call	0x2a62	; 0x2a62 <delete_rectangle>
	USART1_sendInt(return_val);
    5204:	60 91 5f 42 	lds	r22, 0x425F	; 0x80425f <return_val>
    5208:	70 91 60 42 	lds	r23, 0x4260	; 0x804260 <return_val+0x1>
    520c:	07 2e       	mov	r0, r23
    520e:	00 0c       	add	r0, r0
    5210:	88 0b       	sbc	r24, r24
    5212:	99 0b       	sbc	r25, r25
    5214:	0e 94 19 10 	call	0x2032	; 0x2032 <USART1_sendInt>
	mode_button_flag = false;
    5218:	10 92 5c 42 	sts	0x425C, r1	; 0x80425c <mode_button_flag>
	lpm20_flag = false;		
    521c:	10 92 54 42 	sts	0x4254, r1	; 0x804254 <lpm20_flag>
	lpm30_flag = false;
    5220:	10 92 53 42 	sts	0x4253, r1	; 0x804253 <lpm30_flag>
	lpm40_flag = false;
    5224:	10 92 52 42 	sts	0x4252, r1	; 0x804252 <lpm40_flag>
	lpm50_flag = false;
    5228:	10 92 51 42 	sts	0x4251, r1	; 0x804251 <lpm50_flag>
	lpm60_flag = false;
    522c:	10 92 50 42 	sts	0x4250, r1	; 0x804250 <lpm60_flag>
	play_pause_button_press_flag = false;
    5230:	10 92 86 42 	sts	0x4286, r1	; 0x804286 <play_pause_button_press_flag>
	USART1_sendString("EXIT FROM SETTINS MENU");
    5234:	85 e2       	ldi	r24, 0x25	; 37
    5236:	92 e4       	ldi	r25, 0x42	; 66
    5238:	0e 94 da 0f 	call	0x1fb4	; 0x1fb4 <USART1_sendString>
	return return_val;
 }
    523c:	80 91 5f 42 	lds	r24, 0x425F	; 0x80425f <return_val>
    5240:	90 91 60 42 	lds	r25, 0x4260	; 0x804260 <return_val+0x1>
    5244:	df 91       	pop	r29
    5246:	cf 91       	pop	r28
    5248:	08 95       	ret

0000524a <mode_1>:
#include "Dc_suction_declarations.h"

void mode_1(void)
{
    524a:	0f 93       	push	r16
	if ((mode_button_flag) && ((millis - long_press_pwms_set) > button_normal_press))
    524c:	80 91 5c 42 	lds	r24, 0x425C	; 0x80425c <mode_button_flag>
    5250:	88 23       	and	r24, r24
    5252:	89 f1       	breq	.+98     	; 0x52b6 <mode_1+0x6c>
    5254:	80 91 a2 42 	lds	r24, 0x42A2	; 0x8042a2 <millis>
    5258:	90 91 a3 42 	lds	r25, 0x42A3	; 0x8042a3 <millis+0x1>
    525c:	a0 91 a4 42 	lds	r26, 0x42A4	; 0x8042a4 <millis+0x2>
    5260:	b0 91 a5 42 	lds	r27, 0x42A5	; 0x8042a5 <millis+0x3>
    5264:	40 91 57 42 	lds	r20, 0x4257	; 0x804257 <long_press_pwms_set>
    5268:	50 91 58 42 	lds	r21, 0x4258	; 0x804258 <long_press_pwms_set+0x1>
    526c:	60 91 59 42 	lds	r22, 0x4259	; 0x804259 <long_press_pwms_set+0x2>
    5270:	70 91 5a 42 	lds	r23, 0x425A	; 0x80425a <long_press_pwms_set+0x3>
    5274:	84 1b       	sub	r24, r20
    5276:	95 0b       	sbc	r25, r21
    5278:	a6 0b       	sbc	r26, r22
    527a:	b7 0b       	sbc	r27, r23
    527c:	89 3b       	cpi	r24, 0xB9	; 185
    527e:	9b 40       	sbci	r25, 0x0B	; 11
    5280:	a1 05       	cpc	r26, r1
    5282:	b1 05       	cpc	r27, r1
    5284:	c0 f0       	brcs	.+48     	; 0x52b6 <mode_1+0x6c>
	{
		mode_button_flag = false;
    5286:	10 92 5c 42 	sts	0x425C, r1	; 0x80425c <mode_button_flag>
		long_press_pwms_set = 0;
    528a:	10 92 57 42 	sts	0x4257, r1	; 0x804257 <long_press_pwms_set>
    528e:	10 92 58 42 	sts	0x4258, r1	; 0x804258 <long_press_pwms_set+0x1>
    5292:	10 92 59 42 	sts	0x4259, r1	; 0x804259 <long_press_pwms_set+0x2>
    5296:	10 92 5a 42 	sts	0x425A, r1	; 0x80425a <long_press_pwms_set+0x3>
		
		USART1_sendString("Entered PWM mode");
    529a:	8c e3       	ldi	r24, 0x3C	; 60
    529c:	92 e4       	ldi	r25, 0x42	; 66
    529e:	0e 94 da 0f 	call	0x1fb4	; 0x1fb4 <USART1_sendString>
		print_icon(icon_callibrate_x,icon_callibrate_y,(uint8_t*) &s_alphabet_17X17,17, 25);
    52a2:	09 e1       	ldi	r16, 0x19	; 25
    52a4:	21 e1       	ldi	r18, 0x11	; 17
    52a6:	4a e2       	ldi	r20, 0x2A	; 42
    52a8:	5a e0       	ldi	r21, 0x0A	; 10
    52aa:	62 e8       	ldi	r22, 0x82	; 130
    52ac:	82 e3       	ldi	r24, 0x32	; 50
    52ae:	0e 94 b9 12 	call	0x2572	; 0x2572 <print_icon>
		settings();
    52b2:	0e 94 e2 27 	call	0x4fc4	; 0x4fc4 <settings>
	}
}
    52b6:	0f 91       	pop	r16
    52b8:	08 95       	ret

000052ba <main>:
#include "DC_pwm_set_mode.c"

int main(void)
{
	//_delay_ms(500);
	cli();
    52ba:	f8 94       	cli
	_PROTECTED_WRITE (CLKCTRL.OSCHFCTRLA, ((CLKCTRL_FRQSEL_24M_gc)|(CLKCTRL_AUTOTUNE_bm)));
    52bc:	95 e2       	ldi	r25, 0x25	; 37
    52be:	88 ed       	ldi	r24, 0xD8	; 216
    52c0:	84 bf       	out	0x34, r24	; 52
    52c2:	90 93 68 00 	sts	0x0068, r25	; 0x800068 <__TEXT_REGION_LENGTH__+0x7e0068>
 	timmer_init();
    52c6:	0e 94 51 1a 	call	0x34a2	; 0x34a2 <timmer_init>
 	USART1_init(9600);
    52ca:	80 e8       	ldi	r24, 0x80	; 128
    52cc:	95 e2       	ldi	r25, 0x25	; 37
    52ce:	0e 94 a8 0f 	call	0x1f50	; 0x1f50 <USART1_init>
 	AMS_PORT.DIR |= AMS_PIN;
    52d2:	e0 e4       	ldi	r30, 0x40	; 64
    52d4:	f4 e0       	ldi	r31, 0x04	; 4
    52d6:	80 81       	ld	r24, Z
    52d8:	80 61       	ori	r24, 0x10	; 16
    52da:	80 83       	st	Z, r24
 	AMS_PORT.OUT &= ~(AMS_PIN);									//ams
    52dc:	84 81       	ldd	r24, Z+4	; 0x04
    52de:	8f 7e       	andi	r24, 0xEF	; 239
    52e0:	84 83       	std	Z+4, r24	; 0x04
 	PORTB.DIR |= (1<<0);									    // foot switch detection led pin
    52e2:	c0 e2       	ldi	r28, 0x20	; 32
    52e4:	d4 e0       	ldi	r29, 0x04	; 4
    52e6:	88 81       	ld	r24, Y
    52e8:	81 60       	ori	r24, 0x01	; 1
    52ea:	88 83       	st	Y, r24
 	TCA0_PWM_init();
    52ec:	0e 94 05 23 	call	0x460a	; 0x460a <TCA0_PWM_init>
 	SPI_0_init();
    52f0:	0e 94 24 10 	call	0x2048	; 0x2048 <SPI_0_init>
 	FOOT_SW_LED_PORT.DIR |= FOOt_SW_LED_PIN;
    52f4:	88 81       	ld	r24, Y
    52f6:	81 60       	ori	r24, 0x01	; 1
    52f8:	88 83       	st	Y, r24
 	FOOT_SW_LED_PORT.OUT &= ~(FOOt_SW_LED_PIN);
    52fa:	8c 81       	ldd	r24, Y+4	; 0x04
    52fc:	8e 7f       	andi	r24, 0xFE	; 254
    52fe:	8c 83       	std	Y+4, r24	; 0x04
 	SUCTION_LED_PORT.DIR |= SUCTION_LED_PIN;
    5300:	e0 e8       	ldi	r30, 0x80	; 128
    5302:	f4 e0       	ldi	r31, 0x04	; 4
    5304:	80 81       	ld	r24, Z
    5306:	88 60       	ori	r24, 0x08	; 8
    5308:	80 83       	st	Z, r24
 	AMS_5812_init();
    530a:	0e 94 da 10 	call	0x21b4	; 0x21b4 <AMS_5812_init>
 	eeprom_init_read();
    530e:	0e 94 6a 24 	call	0x48d4	; 0x48d4 <eeprom_init_read>
 	//motor_sol_gpio_init();
 	NTC_init();
    5312:	0e 94 d4 19 	call	0x33a8	; 0x33a8 <NTC_init>
 	keypad_gpio_init();
    5316:	0e 94 5e 15 	call	0x2abc	; 0x2abc <keypad_gpio_init>
 	lcd_uc1698u_init();
    531a:	0e 94 25 1e 	call	0x3c4a	; 0x3c4a <lcd_uc1698u_init>
 	foot_switch_init();
    531e:	0e 94 76 17 	call	0x2eec	; 0x2eec <foot_switch_init>
 	PORTD.DIR |= (!(1 << 2)); 
    5322:	e0 e6       	ldi	r30, 0x60	; 96
    5324:	f4 e0       	ldi	r31, 0x04	; 4
    5326:	80 81       	ld	r24, Z
    5328:	80 83       	st	Z, r24
 	STP();
    532a:	0e 94 30 24 	call	0x4860	; 0x4860 <STP>
    532e:	2f ef       	ldi	r18, 0xFF	; 255
    5330:	82 e5       	ldi	r24, 0x52	; 82
    5332:	97 e0       	ldi	r25, 0x07	; 7
    5334:	21 50       	subi	r18, 0x01	; 1
    5336:	80 40       	sbci	r24, 0x00	; 0
    5338:	90 40       	sbci	r25, 0x00	; 0
    533a:	e1 f7       	brne	.-8      	; 0x5334 <main+0x7a>
    533c:	00 c0       	rjmp	.+0      	; 0x533e <main+0x84>
    533e:	00 00       	nop
 	_delay_ms(100);
 	sei();
    5340:	78 94       	sei
 	display_runTime_serviceTime();								 //service time and total run time display
    5342:	0e 94 b2 25 	call	0x4b64	; 0x4b64 <display_runTime_serviceTime>
 	lcd_loading_page();
    5346:	0e 94 5b 21 	call	0x42b6	; 0x42b6 <lcd_loading_page>
  
 	while (1)
 	{
 		dc_suction_pressure_main (50);						//argument given to read n times and find average, where n is the argument provided
    534a:	82 e3       	ldi	r24, 0x32	; 50
    534c:	0e 94 2e 16 	call	0x2c5c	; 0x2c5c <dc_suction_pressure_main>
 		keypad_main();
    5350:	0e 94 18 1e 	call	0x3c30	; 0x3c30 <keypad_main>
 		foot_switch_main();
    5354:	0e 94 c4 19 	call	0x3388	; 0x3388 <foot_switch_main>
 		read_ntc();
    5358:	0e 94 d7 19 	call	0x33ae	; 0x33ae <read_ntc>
		//dc_suction_protocol_main();
		lcd_uc1698u_main_screen();
    535c:	0e 94 e6 21 	call	0x43cc	; 0x43cc <lcd_uc1698u_main_screen>
		power_save_protocol();
    5360:	0e 94 b3 18 	call	0x3166	; 0x3166 <power_save_protocol>
		mode_1();											// just added for PWM mode \to dynamically calibrate the PWM of the motor.
    5364:	0e 94 25 29 	call	0x524a	; 0x524a <mode_1>
		calcutale_run_service_time();
    5368:	0e 94 ec 25 	call	0x4bd8	; 0x4bd8 <calcutale_run_service_time>
    536c:	ee cf       	rjmp	.-36     	; 0x534a <main+0x90>

0000536e <__subsf3>:
    536e:	50 58       	subi	r21, 0x80	; 128

00005370 <__addsf3>:
    5370:	bb 27       	eor	r27, r27
    5372:	aa 27       	eor	r26, r26
    5374:	0e 94 cf 29 	call	0x539e	; 0x539e <__addsf3x>
    5378:	0c 94 49 2b 	jmp	0x5692	; 0x5692 <__fp_round>
    537c:	0e 94 3b 2b 	call	0x5676	; 0x5676 <__fp_pscA>
    5380:	38 f0       	brcs	.+14     	; 0x5390 <__addsf3+0x20>
    5382:	0e 94 42 2b 	call	0x5684	; 0x5684 <__fp_pscB>
    5386:	20 f0       	brcs	.+8      	; 0x5390 <__addsf3+0x20>
    5388:	39 f4       	brne	.+14     	; 0x5398 <__addsf3+0x28>
    538a:	9f 3f       	cpi	r25, 0xFF	; 255
    538c:	19 f4       	brne	.+6      	; 0x5394 <__addsf3+0x24>
    538e:	26 f4       	brtc	.+8      	; 0x5398 <__addsf3+0x28>
    5390:	0c 94 38 2b 	jmp	0x5670	; 0x5670 <__fp_nan>
    5394:	0e f4       	brtc	.+2      	; 0x5398 <__addsf3+0x28>
    5396:	e0 95       	com	r30
    5398:	e7 fb       	bst	r30, 7
    539a:	0c 94 32 2b 	jmp	0x5664	; 0x5664 <__fp_inf>

0000539e <__addsf3x>:
    539e:	e9 2f       	mov	r30, r25
    53a0:	0e 94 5a 2b 	call	0x56b4	; 0x56b4 <__fp_split3>
    53a4:	58 f3       	brcs	.-42     	; 0x537c <__addsf3+0xc>
    53a6:	ba 17       	cp	r27, r26
    53a8:	62 07       	cpc	r22, r18
    53aa:	73 07       	cpc	r23, r19
    53ac:	84 07       	cpc	r24, r20
    53ae:	95 07       	cpc	r25, r21
    53b0:	20 f0       	brcs	.+8      	; 0x53ba <__addsf3x+0x1c>
    53b2:	79 f4       	brne	.+30     	; 0x53d2 <__addsf3x+0x34>
    53b4:	a6 f5       	brtc	.+104    	; 0x541e <__addsf3x+0x80>
    53b6:	0c 94 7c 2b 	jmp	0x56f8	; 0x56f8 <__fp_zero>
    53ba:	0e f4       	brtc	.+2      	; 0x53be <__addsf3x+0x20>
    53bc:	e0 95       	com	r30
    53be:	0b 2e       	mov	r0, r27
    53c0:	ba 2f       	mov	r27, r26
    53c2:	a0 2d       	mov	r26, r0
    53c4:	0b 01       	movw	r0, r22
    53c6:	b9 01       	movw	r22, r18
    53c8:	90 01       	movw	r18, r0
    53ca:	0c 01       	movw	r0, r24
    53cc:	ca 01       	movw	r24, r20
    53ce:	a0 01       	movw	r20, r0
    53d0:	11 24       	eor	r1, r1
    53d2:	ff 27       	eor	r31, r31
    53d4:	59 1b       	sub	r21, r25
    53d6:	99 f0       	breq	.+38     	; 0x53fe <__addsf3x+0x60>
    53d8:	59 3f       	cpi	r21, 0xF9	; 249
    53da:	50 f4       	brcc	.+20     	; 0x53f0 <__addsf3x+0x52>
    53dc:	50 3e       	cpi	r21, 0xE0	; 224
    53de:	68 f1       	brcs	.+90     	; 0x543a <__addsf3x+0x9c>
    53e0:	1a 16       	cp	r1, r26
    53e2:	f0 40       	sbci	r31, 0x00	; 0
    53e4:	a2 2f       	mov	r26, r18
    53e6:	23 2f       	mov	r18, r19
    53e8:	34 2f       	mov	r19, r20
    53ea:	44 27       	eor	r20, r20
    53ec:	58 5f       	subi	r21, 0xF8	; 248
    53ee:	f3 cf       	rjmp	.-26     	; 0x53d6 <__addsf3x+0x38>
    53f0:	46 95       	lsr	r20
    53f2:	37 95       	ror	r19
    53f4:	27 95       	ror	r18
    53f6:	a7 95       	ror	r26
    53f8:	f0 40       	sbci	r31, 0x00	; 0
    53fa:	53 95       	inc	r21
    53fc:	c9 f7       	brne	.-14     	; 0x53f0 <__addsf3x+0x52>
    53fe:	7e f4       	brtc	.+30     	; 0x541e <__addsf3x+0x80>
    5400:	1f 16       	cp	r1, r31
    5402:	ba 0b       	sbc	r27, r26
    5404:	62 0b       	sbc	r22, r18
    5406:	73 0b       	sbc	r23, r19
    5408:	84 0b       	sbc	r24, r20
    540a:	ba f0       	brmi	.+46     	; 0x543a <__addsf3x+0x9c>
    540c:	91 50       	subi	r25, 0x01	; 1
    540e:	a1 f0       	breq	.+40     	; 0x5438 <__addsf3x+0x9a>
    5410:	ff 0f       	add	r31, r31
    5412:	bb 1f       	adc	r27, r27
    5414:	66 1f       	adc	r22, r22
    5416:	77 1f       	adc	r23, r23
    5418:	88 1f       	adc	r24, r24
    541a:	c2 f7       	brpl	.-16     	; 0x540c <__addsf3x+0x6e>
    541c:	0e c0       	rjmp	.+28     	; 0x543a <__addsf3x+0x9c>
    541e:	ba 0f       	add	r27, r26
    5420:	62 1f       	adc	r22, r18
    5422:	73 1f       	adc	r23, r19
    5424:	84 1f       	adc	r24, r20
    5426:	48 f4       	brcc	.+18     	; 0x543a <__addsf3x+0x9c>
    5428:	87 95       	ror	r24
    542a:	77 95       	ror	r23
    542c:	67 95       	ror	r22
    542e:	b7 95       	ror	r27
    5430:	f7 95       	ror	r31
    5432:	9e 3f       	cpi	r25, 0xFE	; 254
    5434:	08 f0       	brcs	.+2      	; 0x5438 <__addsf3x+0x9a>
    5436:	b0 cf       	rjmp	.-160    	; 0x5398 <__addsf3+0x28>
    5438:	93 95       	inc	r25
    543a:	88 0f       	add	r24, r24
    543c:	08 f0       	brcs	.+2      	; 0x5440 <__addsf3x+0xa2>
    543e:	99 27       	eor	r25, r25
    5440:	ee 0f       	add	r30, r30
    5442:	97 95       	ror	r25
    5444:	87 95       	ror	r24
    5446:	08 95       	ret

00005448 <__cmpsf2>:
    5448:	0e 94 0e 2b 	call	0x561c	; 0x561c <__fp_cmp>
    544c:	08 f4       	brcc	.+2      	; 0x5450 <__cmpsf2+0x8>
    544e:	81 e0       	ldi	r24, 0x01	; 1
    5450:	08 95       	ret

00005452 <__divsf3>:
    5452:	0e 94 3d 2a 	call	0x547a	; 0x547a <__divsf3x>
    5456:	0c 94 49 2b 	jmp	0x5692	; 0x5692 <__fp_round>
    545a:	0e 94 42 2b 	call	0x5684	; 0x5684 <__fp_pscB>
    545e:	58 f0       	brcs	.+22     	; 0x5476 <__divsf3+0x24>
    5460:	0e 94 3b 2b 	call	0x5676	; 0x5676 <__fp_pscA>
    5464:	40 f0       	brcs	.+16     	; 0x5476 <__divsf3+0x24>
    5466:	29 f4       	brne	.+10     	; 0x5472 <__divsf3+0x20>
    5468:	5f 3f       	cpi	r21, 0xFF	; 255
    546a:	29 f0       	breq	.+10     	; 0x5476 <__divsf3+0x24>
    546c:	0c 94 32 2b 	jmp	0x5664	; 0x5664 <__fp_inf>
    5470:	51 11       	cpse	r21, r1
    5472:	0c 94 7d 2b 	jmp	0x56fa	; 0x56fa <__fp_szero>
    5476:	0c 94 38 2b 	jmp	0x5670	; 0x5670 <__fp_nan>

0000547a <__divsf3x>:
    547a:	0e 94 5a 2b 	call	0x56b4	; 0x56b4 <__fp_split3>
    547e:	68 f3       	brcs	.-38     	; 0x545a <__divsf3+0x8>

00005480 <__divsf3_pse>:
    5480:	99 23       	and	r25, r25
    5482:	b1 f3       	breq	.-20     	; 0x5470 <__divsf3+0x1e>
    5484:	55 23       	and	r21, r21
    5486:	91 f3       	breq	.-28     	; 0x546c <__divsf3+0x1a>
    5488:	95 1b       	sub	r25, r21
    548a:	55 0b       	sbc	r21, r21
    548c:	bb 27       	eor	r27, r27
    548e:	aa 27       	eor	r26, r26
    5490:	62 17       	cp	r22, r18
    5492:	73 07       	cpc	r23, r19
    5494:	84 07       	cpc	r24, r20
    5496:	38 f0       	brcs	.+14     	; 0x54a6 <__divsf3_pse+0x26>
    5498:	9f 5f       	subi	r25, 0xFF	; 255
    549a:	5f 4f       	sbci	r21, 0xFF	; 255
    549c:	22 0f       	add	r18, r18
    549e:	33 1f       	adc	r19, r19
    54a0:	44 1f       	adc	r20, r20
    54a2:	aa 1f       	adc	r26, r26
    54a4:	a9 f3       	breq	.-22     	; 0x5490 <__divsf3_pse+0x10>
    54a6:	35 d0       	rcall	.+106    	; 0x5512 <__divsf3_pse+0x92>
    54a8:	0e 2e       	mov	r0, r30
    54aa:	3a f0       	brmi	.+14     	; 0x54ba <__divsf3_pse+0x3a>
    54ac:	e0 e8       	ldi	r30, 0x80	; 128
    54ae:	32 d0       	rcall	.+100    	; 0x5514 <__divsf3_pse+0x94>
    54b0:	91 50       	subi	r25, 0x01	; 1
    54b2:	50 40       	sbci	r21, 0x00	; 0
    54b4:	e6 95       	lsr	r30
    54b6:	00 1c       	adc	r0, r0
    54b8:	ca f7       	brpl	.-14     	; 0x54ac <__divsf3_pse+0x2c>
    54ba:	2b d0       	rcall	.+86     	; 0x5512 <__divsf3_pse+0x92>
    54bc:	fe 2f       	mov	r31, r30
    54be:	29 d0       	rcall	.+82     	; 0x5512 <__divsf3_pse+0x92>
    54c0:	66 0f       	add	r22, r22
    54c2:	77 1f       	adc	r23, r23
    54c4:	88 1f       	adc	r24, r24
    54c6:	bb 1f       	adc	r27, r27
    54c8:	26 17       	cp	r18, r22
    54ca:	37 07       	cpc	r19, r23
    54cc:	48 07       	cpc	r20, r24
    54ce:	ab 07       	cpc	r26, r27
    54d0:	b0 e8       	ldi	r27, 0x80	; 128
    54d2:	09 f0       	breq	.+2      	; 0x54d6 <__divsf3_pse+0x56>
    54d4:	bb 0b       	sbc	r27, r27
    54d6:	80 2d       	mov	r24, r0
    54d8:	bf 01       	movw	r22, r30
    54da:	ff 27       	eor	r31, r31
    54dc:	93 58       	subi	r25, 0x83	; 131
    54de:	5f 4f       	sbci	r21, 0xFF	; 255
    54e0:	3a f0       	brmi	.+14     	; 0x54f0 <__divsf3_pse+0x70>
    54e2:	9e 3f       	cpi	r25, 0xFE	; 254
    54e4:	51 05       	cpc	r21, r1
    54e6:	78 f0       	brcs	.+30     	; 0x5506 <__divsf3_pse+0x86>
    54e8:	0c 94 32 2b 	jmp	0x5664	; 0x5664 <__fp_inf>
    54ec:	0c 94 7d 2b 	jmp	0x56fa	; 0x56fa <__fp_szero>
    54f0:	5f 3f       	cpi	r21, 0xFF	; 255
    54f2:	e4 f3       	brlt	.-8      	; 0x54ec <__divsf3_pse+0x6c>
    54f4:	98 3e       	cpi	r25, 0xE8	; 232
    54f6:	d4 f3       	brlt	.-12     	; 0x54ec <__divsf3_pse+0x6c>
    54f8:	86 95       	lsr	r24
    54fa:	77 95       	ror	r23
    54fc:	67 95       	ror	r22
    54fe:	b7 95       	ror	r27
    5500:	f7 95       	ror	r31
    5502:	9f 5f       	subi	r25, 0xFF	; 255
    5504:	c9 f7       	brne	.-14     	; 0x54f8 <__divsf3_pse+0x78>
    5506:	88 0f       	add	r24, r24
    5508:	91 1d       	adc	r25, r1
    550a:	96 95       	lsr	r25
    550c:	87 95       	ror	r24
    550e:	97 f9       	bld	r25, 7
    5510:	08 95       	ret
    5512:	e1 e0       	ldi	r30, 0x01	; 1
    5514:	66 0f       	add	r22, r22
    5516:	77 1f       	adc	r23, r23
    5518:	88 1f       	adc	r24, r24
    551a:	bb 1f       	adc	r27, r27
    551c:	62 17       	cp	r22, r18
    551e:	73 07       	cpc	r23, r19
    5520:	84 07       	cpc	r24, r20
    5522:	ba 07       	cpc	r27, r26
    5524:	20 f0       	brcs	.+8      	; 0x552e <__divsf3_pse+0xae>
    5526:	62 1b       	sub	r22, r18
    5528:	73 0b       	sbc	r23, r19
    552a:	84 0b       	sbc	r24, r20
    552c:	ba 0b       	sbc	r27, r26
    552e:	ee 1f       	adc	r30, r30
    5530:	88 f7       	brcc	.-30     	; 0x5514 <__divsf3_pse+0x94>
    5532:	e0 95       	com	r30
    5534:	08 95       	ret

00005536 <__fixsfsi>:
    5536:	0e 94 a2 2a 	call	0x5544	; 0x5544 <__fixunssfsi>
    553a:	68 94       	set
    553c:	b1 11       	cpse	r27, r1
    553e:	0c 94 7d 2b 	jmp	0x56fa	; 0x56fa <__fp_szero>
    5542:	08 95       	ret

00005544 <__fixunssfsi>:
    5544:	0e 94 62 2b 	call	0x56c4	; 0x56c4 <__fp_splitA>
    5548:	88 f0       	brcs	.+34     	; 0x556c <__fixunssfsi+0x28>
    554a:	9f 57       	subi	r25, 0x7F	; 127
    554c:	98 f0       	brcs	.+38     	; 0x5574 <__fixunssfsi+0x30>
    554e:	b9 2f       	mov	r27, r25
    5550:	99 27       	eor	r25, r25
    5552:	b7 51       	subi	r27, 0x17	; 23
    5554:	b0 f0       	brcs	.+44     	; 0x5582 <__fixunssfsi+0x3e>
    5556:	e1 f0       	breq	.+56     	; 0x5590 <__fixunssfsi+0x4c>
    5558:	66 0f       	add	r22, r22
    555a:	77 1f       	adc	r23, r23
    555c:	88 1f       	adc	r24, r24
    555e:	99 1f       	adc	r25, r25
    5560:	1a f0       	brmi	.+6      	; 0x5568 <__fixunssfsi+0x24>
    5562:	ba 95       	dec	r27
    5564:	c9 f7       	brne	.-14     	; 0x5558 <__fixunssfsi+0x14>
    5566:	14 c0       	rjmp	.+40     	; 0x5590 <__fixunssfsi+0x4c>
    5568:	b1 30       	cpi	r27, 0x01	; 1
    556a:	91 f0       	breq	.+36     	; 0x5590 <__fixunssfsi+0x4c>
    556c:	0e 94 7c 2b 	call	0x56f8	; 0x56f8 <__fp_zero>
    5570:	b1 e0       	ldi	r27, 0x01	; 1
    5572:	08 95       	ret
    5574:	0c 94 7c 2b 	jmp	0x56f8	; 0x56f8 <__fp_zero>
    5578:	67 2f       	mov	r22, r23
    557a:	78 2f       	mov	r23, r24
    557c:	88 27       	eor	r24, r24
    557e:	b8 5f       	subi	r27, 0xF8	; 248
    5580:	39 f0       	breq	.+14     	; 0x5590 <__fixunssfsi+0x4c>
    5582:	b9 3f       	cpi	r27, 0xF9	; 249
    5584:	cc f3       	brlt	.-14     	; 0x5578 <__fixunssfsi+0x34>
    5586:	86 95       	lsr	r24
    5588:	77 95       	ror	r23
    558a:	67 95       	ror	r22
    558c:	b3 95       	inc	r27
    558e:	d9 f7       	brne	.-10     	; 0x5586 <__fixunssfsi+0x42>
    5590:	3e f4       	brtc	.+14     	; 0x55a0 <__fixunssfsi+0x5c>
    5592:	90 95       	com	r25
    5594:	80 95       	com	r24
    5596:	70 95       	com	r23
    5598:	61 95       	neg	r22
    559a:	7f 4f       	sbci	r23, 0xFF	; 255
    559c:	8f 4f       	sbci	r24, 0xFF	; 255
    559e:	9f 4f       	sbci	r25, 0xFF	; 255
    55a0:	08 95       	ret

000055a2 <__floatunsisf>:
    55a2:	e8 94       	clt
    55a4:	09 c0       	rjmp	.+18     	; 0x55b8 <__floatsisf+0x12>

000055a6 <__floatsisf>:
    55a6:	97 fb       	bst	r25, 7
    55a8:	3e f4       	brtc	.+14     	; 0x55b8 <__floatsisf+0x12>
    55aa:	90 95       	com	r25
    55ac:	80 95       	com	r24
    55ae:	70 95       	com	r23
    55b0:	61 95       	neg	r22
    55b2:	7f 4f       	sbci	r23, 0xFF	; 255
    55b4:	8f 4f       	sbci	r24, 0xFF	; 255
    55b6:	9f 4f       	sbci	r25, 0xFF	; 255
    55b8:	99 23       	and	r25, r25
    55ba:	a9 f0       	breq	.+42     	; 0x55e6 <__floatsisf+0x40>
    55bc:	f9 2f       	mov	r31, r25
    55be:	96 e9       	ldi	r25, 0x96	; 150
    55c0:	bb 27       	eor	r27, r27
    55c2:	93 95       	inc	r25
    55c4:	f6 95       	lsr	r31
    55c6:	87 95       	ror	r24
    55c8:	77 95       	ror	r23
    55ca:	67 95       	ror	r22
    55cc:	b7 95       	ror	r27
    55ce:	f1 11       	cpse	r31, r1
    55d0:	f8 cf       	rjmp	.-16     	; 0x55c2 <__floatsisf+0x1c>
    55d2:	fa f4       	brpl	.+62     	; 0x5612 <__floatsisf+0x6c>
    55d4:	bb 0f       	add	r27, r27
    55d6:	11 f4       	brne	.+4      	; 0x55dc <__floatsisf+0x36>
    55d8:	60 ff       	sbrs	r22, 0
    55da:	1b c0       	rjmp	.+54     	; 0x5612 <__floatsisf+0x6c>
    55dc:	6f 5f       	subi	r22, 0xFF	; 255
    55de:	7f 4f       	sbci	r23, 0xFF	; 255
    55e0:	8f 4f       	sbci	r24, 0xFF	; 255
    55e2:	9f 4f       	sbci	r25, 0xFF	; 255
    55e4:	16 c0       	rjmp	.+44     	; 0x5612 <__floatsisf+0x6c>
    55e6:	88 23       	and	r24, r24
    55e8:	11 f0       	breq	.+4      	; 0x55ee <__floatsisf+0x48>
    55ea:	96 e9       	ldi	r25, 0x96	; 150
    55ec:	11 c0       	rjmp	.+34     	; 0x5610 <__floatsisf+0x6a>
    55ee:	77 23       	and	r23, r23
    55f0:	21 f0       	breq	.+8      	; 0x55fa <__floatsisf+0x54>
    55f2:	9e e8       	ldi	r25, 0x8E	; 142
    55f4:	87 2f       	mov	r24, r23
    55f6:	76 2f       	mov	r23, r22
    55f8:	05 c0       	rjmp	.+10     	; 0x5604 <__floatsisf+0x5e>
    55fa:	66 23       	and	r22, r22
    55fc:	71 f0       	breq	.+28     	; 0x561a <__floatsisf+0x74>
    55fe:	96 e8       	ldi	r25, 0x86	; 134
    5600:	86 2f       	mov	r24, r22
    5602:	70 e0       	ldi	r23, 0x00	; 0
    5604:	60 e0       	ldi	r22, 0x00	; 0
    5606:	2a f0       	brmi	.+10     	; 0x5612 <__floatsisf+0x6c>
    5608:	9a 95       	dec	r25
    560a:	66 0f       	add	r22, r22
    560c:	77 1f       	adc	r23, r23
    560e:	88 1f       	adc	r24, r24
    5610:	da f7       	brpl	.-10     	; 0x5608 <__floatsisf+0x62>
    5612:	88 0f       	add	r24, r24
    5614:	96 95       	lsr	r25
    5616:	87 95       	ror	r24
    5618:	97 f9       	bld	r25, 7
    561a:	08 95       	ret

0000561c <__fp_cmp>:
    561c:	99 0f       	add	r25, r25
    561e:	00 08       	sbc	r0, r0
    5620:	55 0f       	add	r21, r21
    5622:	aa 0b       	sbc	r26, r26
    5624:	e0 e8       	ldi	r30, 0x80	; 128
    5626:	fe ef       	ldi	r31, 0xFE	; 254
    5628:	16 16       	cp	r1, r22
    562a:	17 06       	cpc	r1, r23
    562c:	e8 07       	cpc	r30, r24
    562e:	f9 07       	cpc	r31, r25
    5630:	c0 f0       	brcs	.+48     	; 0x5662 <__fp_cmp+0x46>
    5632:	12 16       	cp	r1, r18
    5634:	13 06       	cpc	r1, r19
    5636:	e4 07       	cpc	r30, r20
    5638:	f5 07       	cpc	r31, r21
    563a:	98 f0       	brcs	.+38     	; 0x5662 <__fp_cmp+0x46>
    563c:	62 1b       	sub	r22, r18
    563e:	73 0b       	sbc	r23, r19
    5640:	84 0b       	sbc	r24, r20
    5642:	95 0b       	sbc	r25, r21
    5644:	39 f4       	brne	.+14     	; 0x5654 <__fp_cmp+0x38>
    5646:	0a 26       	eor	r0, r26
    5648:	61 f0       	breq	.+24     	; 0x5662 <__fp_cmp+0x46>
    564a:	23 2b       	or	r18, r19
    564c:	24 2b       	or	r18, r20
    564e:	25 2b       	or	r18, r21
    5650:	21 f4       	brne	.+8      	; 0x565a <__fp_cmp+0x3e>
    5652:	08 95       	ret
    5654:	0a 26       	eor	r0, r26
    5656:	09 f4       	brne	.+2      	; 0x565a <__fp_cmp+0x3e>
    5658:	a1 40       	sbci	r26, 0x01	; 1
    565a:	a6 95       	lsr	r26
    565c:	8f ef       	ldi	r24, 0xFF	; 255
    565e:	81 1d       	adc	r24, r1
    5660:	81 1d       	adc	r24, r1
    5662:	08 95       	ret

00005664 <__fp_inf>:
    5664:	97 f9       	bld	r25, 7
    5666:	9f 67       	ori	r25, 0x7F	; 127
    5668:	80 e8       	ldi	r24, 0x80	; 128
    566a:	70 e0       	ldi	r23, 0x00	; 0
    566c:	60 e0       	ldi	r22, 0x00	; 0
    566e:	08 95       	ret

00005670 <__fp_nan>:
    5670:	9f ef       	ldi	r25, 0xFF	; 255
    5672:	80 ec       	ldi	r24, 0xC0	; 192
    5674:	08 95       	ret

00005676 <__fp_pscA>:
    5676:	00 24       	eor	r0, r0
    5678:	0a 94       	dec	r0
    567a:	16 16       	cp	r1, r22
    567c:	17 06       	cpc	r1, r23
    567e:	18 06       	cpc	r1, r24
    5680:	09 06       	cpc	r0, r25
    5682:	08 95       	ret

00005684 <__fp_pscB>:
    5684:	00 24       	eor	r0, r0
    5686:	0a 94       	dec	r0
    5688:	12 16       	cp	r1, r18
    568a:	13 06       	cpc	r1, r19
    568c:	14 06       	cpc	r1, r20
    568e:	05 06       	cpc	r0, r21
    5690:	08 95       	ret

00005692 <__fp_round>:
    5692:	09 2e       	mov	r0, r25
    5694:	03 94       	inc	r0
    5696:	00 0c       	add	r0, r0
    5698:	11 f4       	brne	.+4      	; 0x569e <__fp_round+0xc>
    569a:	88 23       	and	r24, r24
    569c:	52 f0       	brmi	.+20     	; 0x56b2 <__fp_round+0x20>
    569e:	bb 0f       	add	r27, r27
    56a0:	40 f4       	brcc	.+16     	; 0x56b2 <__fp_round+0x20>
    56a2:	bf 2b       	or	r27, r31
    56a4:	11 f4       	brne	.+4      	; 0x56aa <__fp_round+0x18>
    56a6:	60 ff       	sbrs	r22, 0
    56a8:	04 c0       	rjmp	.+8      	; 0x56b2 <__fp_round+0x20>
    56aa:	6f 5f       	subi	r22, 0xFF	; 255
    56ac:	7f 4f       	sbci	r23, 0xFF	; 255
    56ae:	8f 4f       	sbci	r24, 0xFF	; 255
    56b0:	9f 4f       	sbci	r25, 0xFF	; 255
    56b2:	08 95       	ret

000056b4 <__fp_split3>:
    56b4:	57 fd       	sbrc	r21, 7
    56b6:	90 58       	subi	r25, 0x80	; 128
    56b8:	44 0f       	add	r20, r20
    56ba:	55 1f       	adc	r21, r21
    56bc:	59 f0       	breq	.+22     	; 0x56d4 <__fp_splitA+0x10>
    56be:	5f 3f       	cpi	r21, 0xFF	; 255
    56c0:	71 f0       	breq	.+28     	; 0x56de <__fp_splitA+0x1a>
    56c2:	47 95       	ror	r20

000056c4 <__fp_splitA>:
    56c4:	88 0f       	add	r24, r24
    56c6:	97 fb       	bst	r25, 7
    56c8:	99 1f       	adc	r25, r25
    56ca:	61 f0       	breq	.+24     	; 0x56e4 <__fp_splitA+0x20>
    56cc:	9f 3f       	cpi	r25, 0xFF	; 255
    56ce:	79 f0       	breq	.+30     	; 0x56ee <__fp_splitA+0x2a>
    56d0:	87 95       	ror	r24
    56d2:	08 95       	ret
    56d4:	12 16       	cp	r1, r18
    56d6:	13 06       	cpc	r1, r19
    56d8:	14 06       	cpc	r1, r20
    56da:	55 1f       	adc	r21, r21
    56dc:	f2 cf       	rjmp	.-28     	; 0x56c2 <__fp_split3+0xe>
    56de:	46 95       	lsr	r20
    56e0:	f1 df       	rcall	.-30     	; 0x56c4 <__fp_splitA>
    56e2:	08 c0       	rjmp	.+16     	; 0x56f4 <__fp_splitA+0x30>
    56e4:	16 16       	cp	r1, r22
    56e6:	17 06       	cpc	r1, r23
    56e8:	18 06       	cpc	r1, r24
    56ea:	99 1f       	adc	r25, r25
    56ec:	f1 cf       	rjmp	.-30     	; 0x56d0 <__fp_splitA+0xc>
    56ee:	86 95       	lsr	r24
    56f0:	71 05       	cpc	r23, r1
    56f2:	61 05       	cpc	r22, r1
    56f4:	08 94       	sec
    56f6:	08 95       	ret

000056f8 <__fp_zero>:
    56f8:	e8 94       	clt

000056fa <__fp_szero>:
    56fa:	bb 27       	eor	r27, r27
    56fc:	66 27       	eor	r22, r22
    56fe:	77 27       	eor	r23, r23
    5700:	cb 01       	movw	r24, r22
    5702:	97 f9       	bld	r25, 7
    5704:	08 95       	ret

00005706 <__gesf2>:
    5706:	0e 94 0e 2b 	call	0x561c	; 0x561c <__fp_cmp>
    570a:	08 f4       	brcc	.+2      	; 0x570e <__gesf2+0x8>
    570c:	8f ef       	ldi	r24, 0xFF	; 255
    570e:	08 95       	ret

00005710 <__mulsf3>:
    5710:	0e 94 9b 2b 	call	0x5736	; 0x5736 <__mulsf3x>
    5714:	0c 94 49 2b 	jmp	0x5692	; 0x5692 <__fp_round>
    5718:	0e 94 3b 2b 	call	0x5676	; 0x5676 <__fp_pscA>
    571c:	38 f0       	brcs	.+14     	; 0x572c <__mulsf3+0x1c>
    571e:	0e 94 42 2b 	call	0x5684	; 0x5684 <__fp_pscB>
    5722:	20 f0       	brcs	.+8      	; 0x572c <__mulsf3+0x1c>
    5724:	95 23       	and	r25, r21
    5726:	11 f0       	breq	.+4      	; 0x572c <__mulsf3+0x1c>
    5728:	0c 94 32 2b 	jmp	0x5664	; 0x5664 <__fp_inf>
    572c:	0c 94 38 2b 	jmp	0x5670	; 0x5670 <__fp_nan>
    5730:	11 24       	eor	r1, r1
    5732:	0c 94 7d 2b 	jmp	0x56fa	; 0x56fa <__fp_szero>

00005736 <__mulsf3x>:
    5736:	0e 94 5a 2b 	call	0x56b4	; 0x56b4 <__fp_split3>
    573a:	70 f3       	brcs	.-36     	; 0x5718 <__mulsf3+0x8>

0000573c <__mulsf3_pse>:
    573c:	95 9f       	mul	r25, r21
    573e:	c1 f3       	breq	.-16     	; 0x5730 <__mulsf3+0x20>
    5740:	95 0f       	add	r25, r21
    5742:	50 e0       	ldi	r21, 0x00	; 0
    5744:	55 1f       	adc	r21, r21
    5746:	62 9f       	mul	r22, r18
    5748:	f0 01       	movw	r30, r0
    574a:	72 9f       	mul	r23, r18
    574c:	bb 27       	eor	r27, r27
    574e:	f0 0d       	add	r31, r0
    5750:	b1 1d       	adc	r27, r1
    5752:	63 9f       	mul	r22, r19
    5754:	aa 27       	eor	r26, r26
    5756:	f0 0d       	add	r31, r0
    5758:	b1 1d       	adc	r27, r1
    575a:	aa 1f       	adc	r26, r26
    575c:	64 9f       	mul	r22, r20
    575e:	66 27       	eor	r22, r22
    5760:	b0 0d       	add	r27, r0
    5762:	a1 1d       	adc	r26, r1
    5764:	66 1f       	adc	r22, r22
    5766:	82 9f       	mul	r24, r18
    5768:	22 27       	eor	r18, r18
    576a:	b0 0d       	add	r27, r0
    576c:	a1 1d       	adc	r26, r1
    576e:	62 1f       	adc	r22, r18
    5770:	73 9f       	mul	r23, r19
    5772:	b0 0d       	add	r27, r0
    5774:	a1 1d       	adc	r26, r1
    5776:	62 1f       	adc	r22, r18
    5778:	83 9f       	mul	r24, r19
    577a:	a0 0d       	add	r26, r0
    577c:	61 1d       	adc	r22, r1
    577e:	22 1f       	adc	r18, r18
    5780:	74 9f       	mul	r23, r20
    5782:	33 27       	eor	r19, r19
    5784:	a0 0d       	add	r26, r0
    5786:	61 1d       	adc	r22, r1
    5788:	23 1f       	adc	r18, r19
    578a:	84 9f       	mul	r24, r20
    578c:	60 0d       	add	r22, r0
    578e:	21 1d       	adc	r18, r1
    5790:	82 2f       	mov	r24, r18
    5792:	76 2f       	mov	r23, r22
    5794:	6a 2f       	mov	r22, r26
    5796:	11 24       	eor	r1, r1
    5798:	9f 57       	subi	r25, 0x7F	; 127
    579a:	50 40       	sbci	r21, 0x00	; 0
    579c:	9a f0       	brmi	.+38     	; 0x57c4 <__mulsf3_pse+0x88>
    579e:	f1 f0       	breq	.+60     	; 0x57dc <__mulsf3_pse+0xa0>
    57a0:	88 23       	and	r24, r24
    57a2:	4a f0       	brmi	.+18     	; 0x57b6 <__mulsf3_pse+0x7a>
    57a4:	ee 0f       	add	r30, r30
    57a6:	ff 1f       	adc	r31, r31
    57a8:	bb 1f       	adc	r27, r27
    57aa:	66 1f       	adc	r22, r22
    57ac:	77 1f       	adc	r23, r23
    57ae:	88 1f       	adc	r24, r24
    57b0:	91 50       	subi	r25, 0x01	; 1
    57b2:	50 40       	sbci	r21, 0x00	; 0
    57b4:	a9 f7       	brne	.-22     	; 0x57a0 <__mulsf3_pse+0x64>
    57b6:	9e 3f       	cpi	r25, 0xFE	; 254
    57b8:	51 05       	cpc	r21, r1
    57ba:	80 f0       	brcs	.+32     	; 0x57dc <__mulsf3_pse+0xa0>
    57bc:	0c 94 32 2b 	jmp	0x5664	; 0x5664 <__fp_inf>
    57c0:	0c 94 7d 2b 	jmp	0x56fa	; 0x56fa <__fp_szero>
    57c4:	5f 3f       	cpi	r21, 0xFF	; 255
    57c6:	e4 f3       	brlt	.-8      	; 0x57c0 <__mulsf3_pse+0x84>
    57c8:	98 3e       	cpi	r25, 0xE8	; 232
    57ca:	d4 f3       	brlt	.-12     	; 0x57c0 <__mulsf3_pse+0x84>
    57cc:	86 95       	lsr	r24
    57ce:	77 95       	ror	r23
    57d0:	67 95       	ror	r22
    57d2:	b7 95       	ror	r27
    57d4:	f7 95       	ror	r31
    57d6:	e7 95       	ror	r30
    57d8:	9f 5f       	subi	r25, 0xFF	; 255
    57da:	c1 f7       	brne	.-16     	; 0x57cc <__mulsf3_pse+0x90>
    57dc:	fe 2b       	or	r31, r30
    57de:	88 0f       	add	r24, r24
    57e0:	91 1d       	adc	r25, r1
    57e2:	96 95       	lsr	r25
    57e4:	87 95       	ror	r24
    57e6:	97 f9       	bld	r25, 7
    57e8:	08 95       	ret

000057ea <__divmodhi4>:
    57ea:	97 fb       	bst	r25, 7
    57ec:	07 2e       	mov	r0, r23
    57ee:	16 f4       	brtc	.+4      	; 0x57f4 <__divmodhi4+0xa>
    57f0:	00 94       	com	r0
    57f2:	07 d0       	rcall	.+14     	; 0x5802 <__divmodhi4_neg1>
    57f4:	77 fd       	sbrc	r23, 7
    57f6:	09 d0       	rcall	.+18     	; 0x580a <__divmodhi4_neg2>
    57f8:	0e 94 64 2c 	call	0x58c8	; 0x58c8 <__udivmodhi4>
    57fc:	07 fc       	sbrc	r0, 7
    57fe:	05 d0       	rcall	.+10     	; 0x580a <__divmodhi4_neg2>
    5800:	3e f4       	brtc	.+14     	; 0x5810 <__divmodhi4_exit>

00005802 <__divmodhi4_neg1>:
    5802:	90 95       	com	r25
    5804:	81 95       	neg	r24
    5806:	9f 4f       	sbci	r25, 0xFF	; 255
    5808:	08 95       	ret

0000580a <__divmodhi4_neg2>:
    580a:	70 95       	com	r23
    580c:	61 95       	neg	r22
    580e:	7f 4f       	sbci	r23, 0xFF	; 255

00005810 <__divmodhi4_exit>:
    5810:	08 95       	ret

00005812 <__udivmodsi4>:
    5812:	a1 e2       	ldi	r26, 0x21	; 33
    5814:	1a 2e       	mov	r1, r26
    5816:	aa 1b       	sub	r26, r26
    5818:	bb 1b       	sub	r27, r27
    581a:	fd 01       	movw	r30, r26
    581c:	0d c0       	rjmp	.+26     	; 0x5838 <__udivmodsi4_ep>

0000581e <__udivmodsi4_loop>:
    581e:	aa 1f       	adc	r26, r26
    5820:	bb 1f       	adc	r27, r27
    5822:	ee 1f       	adc	r30, r30
    5824:	ff 1f       	adc	r31, r31
    5826:	a2 17       	cp	r26, r18
    5828:	b3 07       	cpc	r27, r19
    582a:	e4 07       	cpc	r30, r20
    582c:	f5 07       	cpc	r31, r21
    582e:	20 f0       	brcs	.+8      	; 0x5838 <__udivmodsi4_ep>
    5830:	a2 1b       	sub	r26, r18
    5832:	b3 0b       	sbc	r27, r19
    5834:	e4 0b       	sbc	r30, r20
    5836:	f5 0b       	sbc	r31, r21

00005838 <__udivmodsi4_ep>:
    5838:	66 1f       	adc	r22, r22
    583a:	77 1f       	adc	r23, r23
    583c:	88 1f       	adc	r24, r24
    583e:	99 1f       	adc	r25, r25
    5840:	1a 94       	dec	r1
    5842:	69 f7       	brne	.-38     	; 0x581e <__udivmodsi4_loop>
    5844:	60 95       	com	r22
    5846:	70 95       	com	r23
    5848:	80 95       	com	r24
    584a:	90 95       	com	r25
    584c:	9b 01       	movw	r18, r22
    584e:	ac 01       	movw	r20, r24
    5850:	bd 01       	movw	r22, r26
    5852:	cf 01       	movw	r24, r30
    5854:	08 95       	ret

00005856 <__divmodsi4>:
    5856:	05 2e       	mov	r0, r21
    5858:	97 fb       	bst	r25, 7
    585a:	1e f4       	brtc	.+6      	; 0x5862 <__divmodsi4+0xc>
    585c:	00 94       	com	r0
    585e:	0e 94 42 2c 	call	0x5884	; 0x5884 <__negsi2>
    5862:	57 fd       	sbrc	r21, 7
    5864:	07 d0       	rcall	.+14     	; 0x5874 <__divmodsi4_neg2>
    5866:	0e 94 09 2c 	call	0x5812	; 0x5812 <__udivmodsi4>
    586a:	07 fc       	sbrc	r0, 7
    586c:	03 d0       	rcall	.+6      	; 0x5874 <__divmodsi4_neg2>
    586e:	4e f4       	brtc	.+18     	; 0x5882 <__divmodsi4_exit>
    5870:	0c 94 42 2c 	jmp	0x5884	; 0x5884 <__negsi2>

00005874 <__divmodsi4_neg2>:
    5874:	50 95       	com	r21
    5876:	40 95       	com	r20
    5878:	30 95       	com	r19
    587a:	21 95       	neg	r18
    587c:	3f 4f       	sbci	r19, 0xFF	; 255
    587e:	4f 4f       	sbci	r20, 0xFF	; 255
    5880:	5f 4f       	sbci	r21, 0xFF	; 255

00005882 <__divmodsi4_exit>:
    5882:	08 95       	ret

00005884 <__negsi2>:
    5884:	90 95       	com	r25
    5886:	80 95       	com	r24
    5888:	70 95       	com	r23
    588a:	61 95       	neg	r22
    588c:	7f 4f       	sbci	r23, 0xFF	; 255
    588e:	8f 4f       	sbci	r24, 0xFF	; 255
    5890:	9f 4f       	sbci	r25, 0xFF	; 255
    5892:	08 95       	ret

00005894 <__umulhisi3>:
    5894:	a2 9f       	mul	r26, r18
    5896:	b0 01       	movw	r22, r0
    5898:	b3 9f       	mul	r27, r19
    589a:	c0 01       	movw	r24, r0
    589c:	a3 9f       	mul	r26, r19
    589e:	70 0d       	add	r23, r0
    58a0:	81 1d       	adc	r24, r1
    58a2:	11 24       	eor	r1, r1
    58a4:	91 1d       	adc	r25, r1
    58a6:	b2 9f       	mul	r27, r18
    58a8:	70 0d       	add	r23, r0
    58aa:	81 1d       	adc	r24, r1
    58ac:	11 24       	eor	r1, r1
    58ae:	91 1d       	adc	r25, r1
    58b0:	08 95       	ret

000058b2 <__muluhisi3>:
    58b2:	0e 94 4a 2c 	call	0x5894	; 0x5894 <__umulhisi3>
    58b6:	a5 9f       	mul	r26, r21
    58b8:	90 0d       	add	r25, r0
    58ba:	b4 9f       	mul	r27, r20
    58bc:	90 0d       	add	r25, r0
    58be:	a4 9f       	mul	r26, r20
    58c0:	80 0d       	add	r24, r0
    58c2:	91 1d       	adc	r25, r1
    58c4:	11 24       	eor	r1, r1
    58c6:	08 95       	ret

000058c8 <__udivmodhi4>:
    58c8:	aa 1b       	sub	r26, r26
    58ca:	bb 1b       	sub	r27, r27
    58cc:	51 e1       	ldi	r21, 0x11	; 17
    58ce:	07 c0       	rjmp	.+14     	; 0x58de <__udivmodhi4_ep>

000058d0 <__udivmodhi4_loop>:
    58d0:	aa 1f       	adc	r26, r26
    58d2:	bb 1f       	adc	r27, r27
    58d4:	a6 17       	cp	r26, r22
    58d6:	b7 07       	cpc	r27, r23
    58d8:	10 f0       	brcs	.+4      	; 0x58de <__udivmodhi4_ep>
    58da:	a6 1b       	sub	r26, r22
    58dc:	b7 0b       	sbc	r27, r23

000058de <__udivmodhi4_ep>:
    58de:	88 1f       	adc	r24, r24
    58e0:	99 1f       	adc	r25, r25
    58e2:	5a 95       	dec	r21
    58e4:	a9 f7       	brne	.-22     	; 0x58d0 <__udivmodhi4_loop>
    58e6:	80 95       	com	r24
    58e8:	90 95       	com	r25
    58ea:	bc 01       	movw	r22, r24
    58ec:	cd 01       	movw	r24, r26
    58ee:	08 95       	ret

000058f0 <calloc>:
    58f0:	0f 93       	push	r16
    58f2:	1f 93       	push	r17
    58f4:	cf 93       	push	r28
    58f6:	df 93       	push	r29
    58f8:	86 9f       	mul	r24, r22
    58fa:	80 01       	movw	r16, r0
    58fc:	87 9f       	mul	r24, r23
    58fe:	10 0d       	add	r17, r0
    5900:	96 9f       	mul	r25, r22
    5902:	10 0d       	add	r17, r0
    5904:	11 24       	eor	r1, r1
    5906:	c8 01       	movw	r24, r16
    5908:	0e 94 94 2c 	call	0x5928	; 0x5928 <malloc>
    590c:	ec 01       	movw	r28, r24
    590e:	00 97       	sbiw	r24, 0x00	; 0
    5910:	29 f0       	breq	.+10     	; 0x591c <calloc+0x2c>
    5912:	a8 01       	movw	r20, r16
    5914:	60 e0       	ldi	r22, 0x00	; 0
    5916:	70 e0       	ldi	r23, 0x00	; 0
    5918:	0e 94 a3 2e 	call	0x5d46	; 0x5d46 <memset>
    591c:	ce 01       	movw	r24, r28
    591e:	df 91       	pop	r29
    5920:	cf 91       	pop	r28
    5922:	1f 91       	pop	r17
    5924:	0f 91       	pop	r16
    5926:	08 95       	ret

00005928 <malloc>:
    5928:	0f 93       	push	r16
    592a:	1f 93       	push	r17
    592c:	cf 93       	push	r28
    592e:	df 93       	push	r29
    5930:	82 30       	cpi	r24, 0x02	; 2
    5932:	91 05       	cpc	r25, r1
    5934:	10 f4       	brcc	.+4      	; 0x593a <malloc+0x12>
    5936:	82 e0       	ldi	r24, 0x02	; 2
    5938:	90 e0       	ldi	r25, 0x00	; 0
    593a:	e0 91 fd 42 	lds	r30, 0x42FD	; 0x8042fd <__flp>
    593e:	f0 91 fe 42 	lds	r31, 0x42FE	; 0x8042fe <__flp+0x1>
    5942:	20 e0       	ldi	r18, 0x00	; 0
    5944:	30 e0       	ldi	r19, 0x00	; 0
    5946:	a0 e0       	ldi	r26, 0x00	; 0
    5948:	b0 e0       	ldi	r27, 0x00	; 0
    594a:	30 97       	sbiw	r30, 0x00	; 0
    594c:	19 f1       	breq	.+70     	; 0x5994 <malloc+0x6c>
    594e:	40 81       	ld	r20, Z
    5950:	51 81       	ldd	r21, Z+1	; 0x01
    5952:	02 81       	ldd	r16, Z+2	; 0x02
    5954:	13 81       	ldd	r17, Z+3	; 0x03
    5956:	48 17       	cp	r20, r24
    5958:	59 07       	cpc	r21, r25
    595a:	c8 f0       	brcs	.+50     	; 0x598e <malloc+0x66>
    595c:	84 17       	cp	r24, r20
    595e:	95 07       	cpc	r25, r21
    5960:	69 f4       	brne	.+26     	; 0x597c <malloc+0x54>
    5962:	10 97       	sbiw	r26, 0x00	; 0
    5964:	31 f0       	breq	.+12     	; 0x5972 <malloc+0x4a>
    5966:	12 96       	adiw	r26, 0x02	; 2
    5968:	0c 93       	st	X, r16
    596a:	12 97       	sbiw	r26, 0x02	; 2
    596c:	13 96       	adiw	r26, 0x03	; 3
    596e:	1c 93       	st	X, r17
    5970:	27 c0       	rjmp	.+78     	; 0x59c0 <malloc+0x98>
    5972:	00 93 fd 42 	sts	0x42FD, r16	; 0x8042fd <__flp>
    5976:	10 93 fe 42 	sts	0x42FE, r17	; 0x8042fe <__flp+0x1>
    597a:	22 c0       	rjmp	.+68     	; 0x59c0 <malloc+0x98>
    597c:	21 15       	cp	r18, r1
    597e:	31 05       	cpc	r19, r1
    5980:	19 f0       	breq	.+6      	; 0x5988 <malloc+0x60>
    5982:	42 17       	cp	r20, r18
    5984:	53 07       	cpc	r21, r19
    5986:	18 f4       	brcc	.+6      	; 0x598e <malloc+0x66>
    5988:	9a 01       	movw	r18, r20
    598a:	bd 01       	movw	r22, r26
    598c:	ef 01       	movw	r28, r30
    598e:	df 01       	movw	r26, r30
    5990:	f8 01       	movw	r30, r16
    5992:	db cf       	rjmp	.-74     	; 0x594a <malloc+0x22>
    5994:	21 15       	cp	r18, r1
    5996:	31 05       	cpc	r19, r1
    5998:	f9 f0       	breq	.+62     	; 0x59d8 <malloc+0xb0>
    599a:	28 1b       	sub	r18, r24
    599c:	39 0b       	sbc	r19, r25
    599e:	24 30       	cpi	r18, 0x04	; 4
    59a0:	31 05       	cpc	r19, r1
    59a2:	80 f4       	brcc	.+32     	; 0x59c4 <malloc+0x9c>
    59a4:	8a 81       	ldd	r24, Y+2	; 0x02
    59a6:	9b 81       	ldd	r25, Y+3	; 0x03
    59a8:	61 15       	cp	r22, r1
    59aa:	71 05       	cpc	r23, r1
    59ac:	21 f0       	breq	.+8      	; 0x59b6 <malloc+0x8e>
    59ae:	fb 01       	movw	r30, r22
    59b0:	82 83       	std	Z+2, r24	; 0x02
    59b2:	93 83       	std	Z+3, r25	; 0x03
    59b4:	04 c0       	rjmp	.+8      	; 0x59be <malloc+0x96>
    59b6:	80 93 fd 42 	sts	0x42FD, r24	; 0x8042fd <__flp>
    59ba:	90 93 fe 42 	sts	0x42FE, r25	; 0x8042fe <__flp+0x1>
    59be:	fe 01       	movw	r30, r28
    59c0:	32 96       	adiw	r30, 0x02	; 2
    59c2:	44 c0       	rjmp	.+136    	; 0x5a4c <malloc+0x124>
    59c4:	fe 01       	movw	r30, r28
    59c6:	e2 0f       	add	r30, r18
    59c8:	f3 1f       	adc	r31, r19
    59ca:	81 93       	st	Z+, r24
    59cc:	91 93       	st	Z+, r25
    59ce:	22 50       	subi	r18, 0x02	; 2
    59d0:	31 09       	sbc	r19, r1
    59d2:	28 83       	st	Y, r18
    59d4:	39 83       	std	Y+1, r19	; 0x01
    59d6:	3a c0       	rjmp	.+116    	; 0x5a4c <malloc+0x124>
    59d8:	20 91 fb 42 	lds	r18, 0x42FB	; 0x8042fb <__brkval>
    59dc:	30 91 fc 42 	lds	r19, 0x42FC	; 0x8042fc <__brkval+0x1>
    59e0:	23 2b       	or	r18, r19
    59e2:	41 f4       	brne	.+16     	; 0x59f4 <malloc+0xcc>
    59e4:	20 91 02 40 	lds	r18, 0x4002	; 0x804002 <__malloc_heap_start>
    59e8:	30 91 03 40 	lds	r19, 0x4003	; 0x804003 <__malloc_heap_start+0x1>
    59ec:	20 93 fb 42 	sts	0x42FB, r18	; 0x8042fb <__brkval>
    59f0:	30 93 fc 42 	sts	0x42FC, r19	; 0x8042fc <__brkval+0x1>
    59f4:	20 91 00 40 	lds	r18, 0x4000	; 0x804000 <__DATA_REGION_ORIGIN__>
    59f8:	30 91 01 40 	lds	r19, 0x4001	; 0x804001 <__DATA_REGION_ORIGIN__+0x1>
    59fc:	21 15       	cp	r18, r1
    59fe:	31 05       	cpc	r19, r1
    5a00:	41 f4       	brne	.+16     	; 0x5a12 <malloc+0xea>
    5a02:	2d b7       	in	r18, 0x3d	; 61
    5a04:	3e b7       	in	r19, 0x3e	; 62
    5a06:	40 91 04 40 	lds	r20, 0x4004	; 0x804004 <__malloc_margin>
    5a0a:	50 91 05 40 	lds	r21, 0x4005	; 0x804005 <__malloc_margin+0x1>
    5a0e:	24 1b       	sub	r18, r20
    5a10:	35 0b       	sbc	r19, r21
    5a12:	e0 91 fb 42 	lds	r30, 0x42FB	; 0x8042fb <__brkval>
    5a16:	f0 91 fc 42 	lds	r31, 0x42FC	; 0x8042fc <__brkval+0x1>
    5a1a:	e2 17       	cp	r30, r18
    5a1c:	f3 07       	cpc	r31, r19
    5a1e:	a0 f4       	brcc	.+40     	; 0x5a48 <malloc+0x120>
    5a20:	2e 1b       	sub	r18, r30
    5a22:	3f 0b       	sbc	r19, r31
    5a24:	28 17       	cp	r18, r24
    5a26:	39 07       	cpc	r19, r25
    5a28:	78 f0       	brcs	.+30     	; 0x5a48 <malloc+0x120>
    5a2a:	ac 01       	movw	r20, r24
    5a2c:	4e 5f       	subi	r20, 0xFE	; 254
    5a2e:	5f 4f       	sbci	r21, 0xFF	; 255
    5a30:	24 17       	cp	r18, r20
    5a32:	35 07       	cpc	r19, r21
    5a34:	48 f0       	brcs	.+18     	; 0x5a48 <malloc+0x120>
    5a36:	4e 0f       	add	r20, r30
    5a38:	5f 1f       	adc	r21, r31
    5a3a:	40 93 fb 42 	sts	0x42FB, r20	; 0x8042fb <__brkval>
    5a3e:	50 93 fc 42 	sts	0x42FC, r21	; 0x8042fc <__brkval+0x1>
    5a42:	81 93       	st	Z+, r24
    5a44:	91 93       	st	Z+, r25
    5a46:	02 c0       	rjmp	.+4      	; 0x5a4c <malloc+0x124>
    5a48:	e0 e0       	ldi	r30, 0x00	; 0
    5a4a:	f0 e0       	ldi	r31, 0x00	; 0
    5a4c:	cf 01       	movw	r24, r30
    5a4e:	df 91       	pop	r29
    5a50:	cf 91       	pop	r28
    5a52:	1f 91       	pop	r17
    5a54:	0f 91       	pop	r16
    5a56:	08 95       	ret

00005a58 <free>:
    5a58:	cf 93       	push	r28
    5a5a:	df 93       	push	r29
    5a5c:	00 97       	sbiw	r24, 0x00	; 0
    5a5e:	09 f4       	brne	.+2      	; 0x5a62 <free+0xa>
    5a60:	81 c0       	rjmp	.+258    	; 0x5b64 <free+0x10c>
    5a62:	fc 01       	movw	r30, r24
    5a64:	32 97       	sbiw	r30, 0x02	; 2
    5a66:	12 82       	std	Z+2, r1	; 0x02
    5a68:	13 82       	std	Z+3, r1	; 0x03
    5a6a:	a0 91 fd 42 	lds	r26, 0x42FD	; 0x8042fd <__flp>
    5a6e:	b0 91 fe 42 	lds	r27, 0x42FE	; 0x8042fe <__flp+0x1>
    5a72:	10 97       	sbiw	r26, 0x00	; 0
    5a74:	81 f4       	brne	.+32     	; 0x5a96 <free+0x3e>
    5a76:	20 81       	ld	r18, Z
    5a78:	31 81       	ldd	r19, Z+1	; 0x01
    5a7a:	82 0f       	add	r24, r18
    5a7c:	93 1f       	adc	r25, r19
    5a7e:	20 91 fb 42 	lds	r18, 0x42FB	; 0x8042fb <__brkval>
    5a82:	30 91 fc 42 	lds	r19, 0x42FC	; 0x8042fc <__brkval+0x1>
    5a86:	28 17       	cp	r18, r24
    5a88:	39 07       	cpc	r19, r25
    5a8a:	51 f5       	brne	.+84     	; 0x5ae0 <free+0x88>
    5a8c:	e0 93 fb 42 	sts	0x42FB, r30	; 0x8042fb <__brkval>
    5a90:	f0 93 fc 42 	sts	0x42FC, r31	; 0x8042fc <__brkval+0x1>
    5a94:	67 c0       	rjmp	.+206    	; 0x5b64 <free+0x10c>
    5a96:	ed 01       	movw	r28, r26
    5a98:	20 e0       	ldi	r18, 0x00	; 0
    5a9a:	30 e0       	ldi	r19, 0x00	; 0
    5a9c:	ce 17       	cp	r28, r30
    5a9e:	df 07       	cpc	r29, r31
    5aa0:	40 f4       	brcc	.+16     	; 0x5ab2 <free+0x5a>
    5aa2:	4a 81       	ldd	r20, Y+2	; 0x02
    5aa4:	5b 81       	ldd	r21, Y+3	; 0x03
    5aa6:	9e 01       	movw	r18, r28
    5aa8:	41 15       	cp	r20, r1
    5aaa:	51 05       	cpc	r21, r1
    5aac:	f1 f0       	breq	.+60     	; 0x5aea <free+0x92>
    5aae:	ea 01       	movw	r28, r20
    5ab0:	f5 cf       	rjmp	.-22     	; 0x5a9c <free+0x44>
    5ab2:	c2 83       	std	Z+2, r28	; 0x02
    5ab4:	d3 83       	std	Z+3, r29	; 0x03
    5ab6:	40 81       	ld	r20, Z
    5ab8:	51 81       	ldd	r21, Z+1	; 0x01
    5aba:	84 0f       	add	r24, r20
    5abc:	95 1f       	adc	r25, r21
    5abe:	c8 17       	cp	r28, r24
    5ac0:	d9 07       	cpc	r29, r25
    5ac2:	59 f4       	brne	.+22     	; 0x5ada <free+0x82>
    5ac4:	88 81       	ld	r24, Y
    5ac6:	99 81       	ldd	r25, Y+1	; 0x01
    5ac8:	84 0f       	add	r24, r20
    5aca:	95 1f       	adc	r25, r21
    5acc:	02 96       	adiw	r24, 0x02	; 2
    5ace:	80 83       	st	Z, r24
    5ad0:	91 83       	std	Z+1, r25	; 0x01
    5ad2:	8a 81       	ldd	r24, Y+2	; 0x02
    5ad4:	9b 81       	ldd	r25, Y+3	; 0x03
    5ad6:	82 83       	std	Z+2, r24	; 0x02
    5ad8:	93 83       	std	Z+3, r25	; 0x03
    5ada:	21 15       	cp	r18, r1
    5adc:	31 05       	cpc	r19, r1
    5ade:	29 f4       	brne	.+10     	; 0x5aea <free+0x92>
    5ae0:	e0 93 fd 42 	sts	0x42FD, r30	; 0x8042fd <__flp>
    5ae4:	f0 93 fe 42 	sts	0x42FE, r31	; 0x8042fe <__flp+0x1>
    5ae8:	3d c0       	rjmp	.+122    	; 0x5b64 <free+0x10c>
    5aea:	e9 01       	movw	r28, r18
    5aec:	ea 83       	std	Y+2, r30	; 0x02
    5aee:	fb 83       	std	Y+3, r31	; 0x03
    5af0:	49 91       	ld	r20, Y+
    5af2:	59 91       	ld	r21, Y+
    5af4:	c4 0f       	add	r28, r20
    5af6:	d5 1f       	adc	r29, r21
    5af8:	ec 17       	cp	r30, r28
    5afa:	fd 07       	cpc	r31, r29
    5afc:	61 f4       	brne	.+24     	; 0x5b16 <free+0xbe>
    5afe:	80 81       	ld	r24, Z
    5b00:	91 81       	ldd	r25, Z+1	; 0x01
    5b02:	84 0f       	add	r24, r20
    5b04:	95 1f       	adc	r25, r21
    5b06:	02 96       	adiw	r24, 0x02	; 2
    5b08:	e9 01       	movw	r28, r18
    5b0a:	88 83       	st	Y, r24
    5b0c:	99 83       	std	Y+1, r25	; 0x01
    5b0e:	82 81       	ldd	r24, Z+2	; 0x02
    5b10:	93 81       	ldd	r25, Z+3	; 0x03
    5b12:	8a 83       	std	Y+2, r24	; 0x02
    5b14:	9b 83       	std	Y+3, r25	; 0x03
    5b16:	e0 e0       	ldi	r30, 0x00	; 0
    5b18:	f0 e0       	ldi	r31, 0x00	; 0
    5b1a:	12 96       	adiw	r26, 0x02	; 2
    5b1c:	8d 91       	ld	r24, X+
    5b1e:	9c 91       	ld	r25, X
    5b20:	13 97       	sbiw	r26, 0x03	; 3
    5b22:	00 97       	sbiw	r24, 0x00	; 0
    5b24:	19 f0       	breq	.+6      	; 0x5b2c <free+0xd4>
    5b26:	fd 01       	movw	r30, r26
    5b28:	dc 01       	movw	r26, r24
    5b2a:	f7 cf       	rjmp	.-18     	; 0x5b1a <free+0xc2>
    5b2c:	8d 91       	ld	r24, X+
    5b2e:	9c 91       	ld	r25, X
    5b30:	11 97       	sbiw	r26, 0x01	; 1
    5b32:	9d 01       	movw	r18, r26
    5b34:	2e 5f       	subi	r18, 0xFE	; 254
    5b36:	3f 4f       	sbci	r19, 0xFF	; 255
    5b38:	82 0f       	add	r24, r18
    5b3a:	93 1f       	adc	r25, r19
    5b3c:	20 91 fb 42 	lds	r18, 0x42FB	; 0x8042fb <__brkval>
    5b40:	30 91 fc 42 	lds	r19, 0x42FC	; 0x8042fc <__brkval+0x1>
    5b44:	28 17       	cp	r18, r24
    5b46:	39 07       	cpc	r19, r25
    5b48:	69 f4       	brne	.+26     	; 0x5b64 <free+0x10c>
    5b4a:	30 97       	sbiw	r30, 0x00	; 0
    5b4c:	29 f4       	brne	.+10     	; 0x5b58 <free+0x100>
    5b4e:	10 92 fd 42 	sts	0x42FD, r1	; 0x8042fd <__flp>
    5b52:	10 92 fe 42 	sts	0x42FE, r1	; 0x8042fe <__flp+0x1>
    5b56:	02 c0       	rjmp	.+4      	; 0x5b5c <free+0x104>
    5b58:	12 82       	std	Z+2, r1	; 0x02
    5b5a:	13 82       	std	Z+3, r1	; 0x03
    5b5c:	a0 93 fb 42 	sts	0x42FB, r26	; 0x8042fb <__brkval>
    5b60:	b0 93 fc 42 	sts	0x42FC, r27	; 0x8042fc <__brkval+0x1>
    5b64:	df 91       	pop	r29
    5b66:	cf 91       	pop	r28
    5b68:	08 95       	ret

00005b6a <realloc>:
    5b6a:	6f 92       	push	r6
    5b6c:	7f 92       	push	r7
    5b6e:	8f 92       	push	r8
    5b70:	9f 92       	push	r9
    5b72:	af 92       	push	r10
    5b74:	bf 92       	push	r11
    5b76:	cf 92       	push	r12
    5b78:	df 92       	push	r13
    5b7a:	ef 92       	push	r14
    5b7c:	ff 92       	push	r15
    5b7e:	0f 93       	push	r16
    5b80:	1f 93       	push	r17
    5b82:	cf 93       	push	r28
    5b84:	df 93       	push	r29
    5b86:	00 97       	sbiw	r24, 0x00	; 0
    5b88:	89 f4       	brne	.+34     	; 0x5bac <realloc+0x42>
    5b8a:	cb 01       	movw	r24, r22
    5b8c:	df 91       	pop	r29
    5b8e:	cf 91       	pop	r28
    5b90:	1f 91       	pop	r17
    5b92:	0f 91       	pop	r16
    5b94:	ff 90       	pop	r15
    5b96:	ef 90       	pop	r14
    5b98:	df 90       	pop	r13
    5b9a:	cf 90       	pop	r12
    5b9c:	bf 90       	pop	r11
    5b9e:	af 90       	pop	r10
    5ba0:	9f 90       	pop	r9
    5ba2:	8f 90       	pop	r8
    5ba4:	7f 90       	pop	r7
    5ba6:	6f 90       	pop	r6
    5ba8:	0c 94 94 2c 	jmp	0x5928	; 0x5928 <malloc>
    5bac:	fc 01       	movw	r30, r24
    5bae:	e6 0f       	add	r30, r22
    5bb0:	f7 1f       	adc	r31, r23
    5bb2:	9c 01       	movw	r18, r24
    5bb4:	22 50       	subi	r18, 0x02	; 2
    5bb6:	31 09       	sbc	r19, r1
    5bb8:	e2 17       	cp	r30, r18
    5bba:	f3 07       	cpc	r31, r19
    5bbc:	08 f4       	brcc	.+2      	; 0x5bc0 <realloc+0x56>
    5bbe:	a9 c0       	rjmp	.+338    	; 0x5d12 <realloc+0x1a8>
    5bc0:	ec 01       	movw	r28, r24
    5bc2:	d9 01       	movw	r26, r18
    5bc4:	0d 91       	ld	r16, X+
    5bc6:	1c 91       	ld	r17, X
    5bc8:	11 97       	sbiw	r26, 0x01	; 1
    5bca:	06 17       	cp	r16, r22
    5bcc:	17 07       	cpc	r17, r23
    5bce:	b0 f0       	brcs	.+44     	; 0x5bfc <realloc+0x92>
    5bd0:	05 30       	cpi	r16, 0x05	; 5
    5bd2:	11 05       	cpc	r17, r1
    5bd4:	08 f4       	brcc	.+2      	; 0x5bd8 <realloc+0x6e>
    5bd6:	9b c0       	rjmp	.+310    	; 0x5d0e <realloc+0x1a4>
    5bd8:	c8 01       	movw	r24, r16
    5bda:	04 97       	sbiw	r24, 0x04	; 4
    5bdc:	86 17       	cp	r24, r22
    5bde:	97 07       	cpc	r25, r23
    5be0:	08 f4       	brcc	.+2      	; 0x5be4 <realloc+0x7a>
    5be2:	95 c0       	rjmp	.+298    	; 0x5d0e <realloc+0x1a4>
    5be4:	02 50       	subi	r16, 0x02	; 2
    5be6:	11 09       	sbc	r17, r1
    5be8:	06 1b       	sub	r16, r22
    5bea:	17 0b       	sbc	r17, r23
    5bec:	01 93       	st	Z+, r16
    5bee:	11 93       	st	Z+, r17
    5bf0:	6d 93       	st	X+, r22
    5bf2:	7c 93       	st	X, r23
    5bf4:	cf 01       	movw	r24, r30
    5bf6:	0e 94 2c 2d 	call	0x5a58	; 0x5a58 <free>
    5bfa:	89 c0       	rjmp	.+274    	; 0x5d0e <realloc+0x1a4>
    5bfc:	5b 01       	movw	r10, r22
    5bfe:	a0 1a       	sub	r10, r16
    5c00:	b1 0a       	sbc	r11, r17
    5c02:	4c 01       	movw	r8, r24
    5c04:	80 0e       	add	r8, r16
    5c06:	91 1e       	adc	r9, r17
    5c08:	a0 91 fd 42 	lds	r26, 0x42FD	; 0x8042fd <__flp>
    5c0c:	b0 91 fe 42 	lds	r27, 0x42FE	; 0x8042fe <__flp+0x1>
    5c10:	61 2c       	mov	r6, r1
    5c12:	71 2c       	mov	r7, r1
    5c14:	e1 2c       	mov	r14, r1
    5c16:	f1 2c       	mov	r15, r1
    5c18:	10 97       	sbiw	r26, 0x00	; 0
    5c1a:	09 f4       	brne	.+2      	; 0x5c1e <realloc+0xb4>
    5c1c:	46 c0       	rjmp	.+140    	; 0x5caa <realloc+0x140>
    5c1e:	8d 91       	ld	r24, X+
    5c20:	9c 91       	ld	r25, X
    5c22:	11 97       	sbiw	r26, 0x01	; 1
    5c24:	a8 15       	cp	r26, r8
    5c26:	b9 05       	cpc	r27, r9
    5c28:	b1 f5       	brne	.+108    	; 0x5c96 <realloc+0x12c>
    5c2a:	6c 01       	movw	r12, r24
    5c2c:	42 e0       	ldi	r20, 0x02	; 2
    5c2e:	c4 0e       	add	r12, r20
    5c30:	d1 1c       	adc	r13, r1
    5c32:	ca 14       	cp	r12, r10
    5c34:	db 04       	cpc	r13, r11
    5c36:	78 f1       	brcs	.+94     	; 0x5c96 <realloc+0x12c>
    5c38:	4c 01       	movw	r8, r24
    5c3a:	8a 18       	sub	r8, r10
    5c3c:	9b 08       	sbc	r9, r11
    5c3e:	64 01       	movw	r12, r8
    5c40:	42 e0       	ldi	r20, 0x02	; 2
    5c42:	c4 0e       	add	r12, r20
    5c44:	d1 1c       	adc	r13, r1
    5c46:	12 96       	adiw	r26, 0x02	; 2
    5c48:	bc 90       	ld	r11, X
    5c4a:	12 97       	sbiw	r26, 0x02	; 2
    5c4c:	13 96       	adiw	r26, 0x03	; 3
    5c4e:	ac 91       	ld	r26, X
    5c50:	b5 e0       	ldi	r27, 0x05	; 5
    5c52:	cb 16       	cp	r12, r27
    5c54:	d1 04       	cpc	r13, r1
    5c56:	40 f0       	brcs	.+16     	; 0x5c68 <realloc+0xfe>
    5c58:	b2 82       	std	Z+2, r11	; 0x02
    5c5a:	a3 83       	std	Z+3, r26	; 0x03
    5c5c:	80 82       	st	Z, r8
    5c5e:	91 82       	std	Z+1, r9	; 0x01
    5c60:	d9 01       	movw	r26, r18
    5c62:	6d 93       	st	X+, r22
    5c64:	7c 93       	st	X, r23
    5c66:	09 c0       	rjmp	.+18     	; 0x5c7a <realloc+0x110>
    5c68:	0e 5f       	subi	r16, 0xFE	; 254
    5c6a:	1f 4f       	sbci	r17, 0xFF	; 255
    5c6c:	80 0f       	add	r24, r16
    5c6e:	91 1f       	adc	r25, r17
    5c70:	f9 01       	movw	r30, r18
    5c72:	80 83       	st	Z, r24
    5c74:	91 83       	std	Z+1, r25	; 0x01
    5c76:	eb 2d       	mov	r30, r11
    5c78:	fa 2f       	mov	r31, r26
    5c7a:	e1 14       	cp	r14, r1
    5c7c:	f1 04       	cpc	r15, r1
    5c7e:	31 f0       	breq	.+12     	; 0x5c8c <realloc+0x122>
    5c80:	d7 01       	movw	r26, r14
    5c82:	12 96       	adiw	r26, 0x02	; 2
    5c84:	ed 93       	st	X+, r30
    5c86:	fc 93       	st	X, r31
    5c88:	13 97       	sbiw	r26, 0x03	; 3
    5c8a:	41 c0       	rjmp	.+130    	; 0x5d0e <realloc+0x1a4>
    5c8c:	e0 93 fd 42 	sts	0x42FD, r30	; 0x8042fd <__flp>
    5c90:	f0 93 fe 42 	sts	0x42FE, r31	; 0x8042fe <__flp+0x1>
    5c94:	3c c0       	rjmp	.+120    	; 0x5d0e <realloc+0x1a4>
    5c96:	68 16       	cp	r6, r24
    5c98:	79 06       	cpc	r7, r25
    5c9a:	08 f4       	brcc	.+2      	; 0x5c9e <realloc+0x134>
    5c9c:	3c 01       	movw	r6, r24
    5c9e:	7d 01       	movw	r14, r26
    5ca0:	12 96       	adiw	r26, 0x02	; 2
    5ca2:	0d 90       	ld	r0, X+
    5ca4:	bc 91       	ld	r27, X
    5ca6:	a0 2d       	mov	r26, r0
    5ca8:	b7 cf       	rjmp	.-146    	; 0x5c18 <realloc+0xae>
    5caa:	80 91 fb 42 	lds	r24, 0x42FB	; 0x8042fb <__brkval>
    5cae:	90 91 fc 42 	lds	r25, 0x42FC	; 0x8042fc <__brkval+0x1>
    5cb2:	88 16       	cp	r8, r24
    5cb4:	99 06       	cpc	r9, r25
    5cb6:	e1 f4       	brne	.+56     	; 0x5cf0 <realloc+0x186>
    5cb8:	66 16       	cp	r6, r22
    5cba:	77 06       	cpc	r7, r23
    5cbc:	c8 f4       	brcc	.+50     	; 0x5cf0 <realloc+0x186>
    5cbe:	80 91 00 40 	lds	r24, 0x4000	; 0x804000 <__DATA_REGION_ORIGIN__>
    5cc2:	90 91 01 40 	lds	r25, 0x4001	; 0x804001 <__DATA_REGION_ORIGIN__+0x1>
    5cc6:	00 97       	sbiw	r24, 0x00	; 0
    5cc8:	41 f4       	brne	.+16     	; 0x5cda <realloc+0x170>
    5cca:	8d b7       	in	r24, 0x3d	; 61
    5ccc:	9e b7       	in	r25, 0x3e	; 62
    5cce:	40 91 04 40 	lds	r20, 0x4004	; 0x804004 <__malloc_margin>
    5cd2:	50 91 05 40 	lds	r21, 0x4005	; 0x804005 <__malloc_margin+0x1>
    5cd6:	84 1b       	sub	r24, r20
    5cd8:	95 0b       	sbc	r25, r21
    5cda:	e8 17       	cp	r30, r24
    5cdc:	f9 07       	cpc	r31, r25
    5cde:	c8 f4       	brcc	.+50     	; 0x5d12 <realloc+0x1a8>
    5ce0:	e0 93 fb 42 	sts	0x42FB, r30	; 0x8042fb <__brkval>
    5ce4:	f0 93 fc 42 	sts	0x42FC, r31	; 0x8042fc <__brkval+0x1>
    5ce8:	f9 01       	movw	r30, r18
    5cea:	60 83       	st	Z, r22
    5cec:	71 83       	std	Z+1, r23	; 0x01
    5cee:	0f c0       	rjmp	.+30     	; 0x5d0e <realloc+0x1a4>
    5cf0:	cb 01       	movw	r24, r22
    5cf2:	0e 94 94 2c 	call	0x5928	; 0x5928 <malloc>
    5cf6:	7c 01       	movw	r14, r24
    5cf8:	00 97       	sbiw	r24, 0x00	; 0
    5cfa:	59 f0       	breq	.+22     	; 0x5d12 <realloc+0x1a8>
    5cfc:	a8 01       	movw	r20, r16
    5cfe:	be 01       	movw	r22, r28
    5d00:	0e 94 9a 2e 	call	0x5d34	; 0x5d34 <memcpy>
    5d04:	ce 01       	movw	r24, r28
    5d06:	0e 94 2c 2d 	call	0x5a58	; 0x5a58 <free>
    5d0a:	c7 01       	movw	r24, r14
    5d0c:	04 c0       	rjmp	.+8      	; 0x5d16 <realloc+0x1ac>
    5d0e:	ce 01       	movw	r24, r28
    5d10:	02 c0       	rjmp	.+4      	; 0x5d16 <realloc+0x1ac>
    5d12:	80 e0       	ldi	r24, 0x00	; 0
    5d14:	90 e0       	ldi	r25, 0x00	; 0
    5d16:	df 91       	pop	r29
    5d18:	cf 91       	pop	r28
    5d1a:	1f 91       	pop	r17
    5d1c:	0f 91       	pop	r16
    5d1e:	ff 90       	pop	r15
    5d20:	ef 90       	pop	r14
    5d22:	df 90       	pop	r13
    5d24:	cf 90       	pop	r12
    5d26:	bf 90       	pop	r11
    5d28:	af 90       	pop	r10
    5d2a:	9f 90       	pop	r9
    5d2c:	8f 90       	pop	r8
    5d2e:	7f 90       	pop	r7
    5d30:	6f 90       	pop	r6
    5d32:	08 95       	ret

00005d34 <memcpy>:
    5d34:	fb 01       	movw	r30, r22
    5d36:	dc 01       	movw	r26, r24
    5d38:	02 c0       	rjmp	.+4      	; 0x5d3e <memcpy+0xa>
    5d3a:	01 90       	ld	r0, Z+
    5d3c:	0d 92       	st	X+, r0
    5d3e:	41 50       	subi	r20, 0x01	; 1
    5d40:	50 40       	sbci	r21, 0x00	; 0
    5d42:	d8 f7       	brcc	.-10     	; 0x5d3a <memcpy+0x6>
    5d44:	08 95       	ret

00005d46 <memset>:
    5d46:	dc 01       	movw	r26, r24
    5d48:	01 c0       	rjmp	.+2      	; 0x5d4c <memset+0x6>
    5d4a:	6d 93       	st	X+, r22
    5d4c:	41 50       	subi	r20, 0x01	; 1
    5d4e:	50 40       	sbci	r21, 0x00	; 0
    5d50:	e0 f7       	brcc	.-8      	; 0x5d4a <memset+0x4>
    5d52:	08 95       	ret

00005d54 <eeprom_read_byte>:
    5d54:	03 d0       	rcall	.+6      	; 0x5d5c <eeprom_mapen>
    5d56:	80 81       	ld	r24, Z
    5d58:	99 27       	eor	r25, r25
    5d5a:	08 95       	ret

00005d5c <eeprom_mapen>:
    5d5c:	fc 01       	movw	r30, r24
    5d5e:	e0 50       	subi	r30, 0x00	; 0
    5d60:	fc 4e       	sbci	r31, 0xEC	; 236
    5d62:	08 95       	ret

00005d64 <eeprom_read_dword>:
    5d64:	0e 94 ae 2e 	call	0x5d5c	; 0x5d5c <eeprom_mapen>
    5d68:	60 81       	ld	r22, Z
    5d6a:	71 81       	ldd	r23, Z+1	; 0x01
    5d6c:	82 81       	ldd	r24, Z+2	; 0x02
    5d6e:	93 81       	ldd	r25, Z+3	; 0x03
    5d70:	08 95       	ret

00005d72 <eeprom_read_word>:
    5d72:	0e 94 ae 2e 	call	0x5d5c	; 0x5d5c <eeprom_mapen>
    5d76:	80 81       	ld	r24, Z
    5d78:	91 81       	ldd	r25, Z+1	; 0x01
    5d7a:	08 95       	ret

00005d7c <ccp_write_io>:
    5d7c:	dc 01       	movw	r26, r24
    5d7e:	28 ed       	ldi	r18, 0xD8	; 216
    5d80:	20 93 34 00 	sts	0x0034, r18	; 0x800034 <__TEXT_REGION_LENGTH__+0x7e0034>
    5d84:	6c 93       	st	X, r22
    5d86:	08 95       	ret

00005d88 <_exit>:
    5d88:	f8 94       	cli

00005d8a <__stop_program>:
    5d8a:	ff cf       	rjmp	.-2      	; 0x5d8a <__stop_program>
